
Lab4.elf:     file format elf32-avr

Sections:
Idx Name          Size      VMA       LMA       File off  Algn
  0 .text         000012cc  00000000  00000000  00000074  2**1
                  CONTENTS, ALLOC, LOAD, READONLY, CODE
  1 .data         0000015e  00800060  000012cc  00001340  2**0
                  CONTENTS, ALLOC, LOAD, DATA
  2 .comment      00000030  00000000  00000000  0000149e  2**0
                  CONTENTS, READONLY
  3 .note.gnu.avr.deviceinfo 0000003c  00000000  00000000  000014d0  2**2
                  CONTENTS, READONLY
  4 .debug_aranges 00000120  00000000  00000000  0000150c  2**0
                  CONTENTS, READONLY, DEBUGGING
  5 .debug_info   00002f26  00000000  00000000  0000162c  2**0
                  CONTENTS, READONLY, DEBUGGING
  6 .debug_abbrev 00000aa1  00000000  00000000  00004552  2**0
                  CONTENTS, READONLY, DEBUGGING
  7 .debug_line   000011ca  00000000  00000000  00004ff3  2**0
                  CONTENTS, READONLY, DEBUGGING
  8 .debug_frame  000002dc  00000000  00000000  000061c0  2**2
                  CONTENTS, READONLY, DEBUGGING
  9 .debug_str    000007bc  00000000  00000000  0000649c  2**0
                  CONTENTS, READONLY, DEBUGGING
 10 .debug_loc    00002048  00000000  00000000  00006c58  2**0
                  CONTENTS, READONLY, DEBUGGING
 11 .debug_ranges 000000f8  00000000  00000000  00008ca0  2**0
                  CONTENTS, READONLY, DEBUGGING

Disassembly of section .text:

00000000 <__vectors>:
       0:	0c 94 2a 00 	jmp	0x54	; 0x54 <__ctors_end>
       4:	0c 94 3f 00 	jmp	0x7e	; 0x7e <__bad_interrupt>
       8:	0c 94 3f 00 	jmp	0x7e	; 0x7e <__bad_interrupt>
       c:	0c 94 3f 00 	jmp	0x7e	; 0x7e <__bad_interrupt>
      10:	0c 94 3f 00 	jmp	0x7e	; 0x7e <__bad_interrupt>
      14:	0c 94 3f 00 	jmp	0x7e	; 0x7e <__bad_interrupt>
      18:	0c 94 3f 00 	jmp	0x7e	; 0x7e <__bad_interrupt>
      1c:	0c 94 3f 00 	jmp	0x7e	; 0x7e <__bad_interrupt>
      20:	0c 94 3f 00 	jmp	0x7e	; 0x7e <__bad_interrupt>
      24:	0c 94 3f 00 	jmp	0x7e	; 0x7e <__bad_interrupt>
      28:	0c 94 3f 00 	jmp	0x7e	; 0x7e <__bad_interrupt>
      2c:	0c 94 3f 00 	jmp	0x7e	; 0x7e <__bad_interrupt>
      30:	0c 94 3f 00 	jmp	0x7e	; 0x7e <__bad_interrupt>
      34:	0c 94 3f 00 	jmp	0x7e	; 0x7e <__bad_interrupt>
      38:	0c 94 3f 00 	jmp	0x7e	; 0x7e <__bad_interrupt>
      3c:	0c 94 3f 00 	jmp	0x7e	; 0x7e <__bad_interrupt>
      40:	0c 94 3f 00 	jmp	0x7e	; 0x7e <__bad_interrupt>
      44:	0c 94 3f 00 	jmp	0x7e	; 0x7e <__bad_interrupt>
      48:	0c 94 3f 00 	jmp	0x7e	; 0x7e <__bad_interrupt>
      4c:	0c 94 3f 00 	jmp	0x7e	; 0x7e <__bad_interrupt>
      50:	0c 94 3f 00 	jmp	0x7e	; 0x7e <__bad_interrupt>

00000054 <__ctors_end>:
      54:	11 24       	eor	r1, r1
      56:	1f be       	out	0x3f, r1	; 63
      58:	cf e5       	ldi	r28, 0x5F	; 95
      5a:	d8 e0       	ldi	r29, 0x08	; 8
      5c:	de bf       	out	0x3e, r29	; 62
      5e:	cd bf       	out	0x3d, r28	; 61

00000060 <__do_copy_data>:
      60:	11 e0       	ldi	r17, 0x01	; 1
      62:	a0 e6       	ldi	r26, 0x60	; 96
      64:	b0 e0       	ldi	r27, 0x00	; 0
      66:	ec ec       	ldi	r30, 0xCC	; 204
      68:	f2 e1       	ldi	r31, 0x12	; 18
      6a:	02 c0       	rjmp	.+4      	; 0x70 <__do_copy_data+0x10>
      6c:	05 90       	lpm	r0, Z+
      6e:	0d 92       	st	X+, r0
      70:	ae 3b       	cpi	r26, 0xBE	; 190
      72:	b1 07       	cpc	r27, r17
      74:	d9 f7       	brne	.-10     	; 0x6c <__do_copy_data+0xc>
      76:	0e 94 e0 04 	call	0x9c0	; 0x9c0 <main>
      7a:	0c 94 64 09 	jmp	0x12c8	; 0x12c8 <_exit>

0000007e <__bad_interrupt>:
      7e:	0c 94 00 00 	jmp	0	; 0x0 <__vectors>

00000082 <DIO_udtSetPinDirection>:
		case DIO_PORTC:DIO->DDRC = u8Value;udtReturnType = E_OK;break;
		case DIO_PORTD:DIO->DDRD = u8Value;udtReturnType = E_OK;break;
		default:/*!Comment: DO nothing*/break;
	}
	return udtReturnType;
}
      82:	41 30       	cpi	r20, 0x01	; 1
      84:	c1 f5       	brne	.+112    	; 0xf6 <DIO_udtSetPinDirection+0x74>
      86:	81 30       	cpi	r24, 0x01	; 1
      88:	91 f0       	breq	.+36     	; 0xae <DIO_udtSetPinDirection+0x2c>
      8a:	28 f0       	brcs	.+10     	; 0x96 <DIO_udtSetPinDirection+0x14>
      8c:	82 30       	cpi	r24, 0x02	; 2
      8e:	d9 f0       	breq	.+54     	; 0xc6 <DIO_udtSetPinDirection+0x44>
      90:	83 30       	cpi	r24, 0x03	; 3
      92:	29 f1       	breq	.+74     	; 0xde <DIO_udtSetPinDirection+0x5c>
      94:	6e c0       	rjmp	.+220    	; 0x172 <DIO_udtSetPinDirection+0xf0>
      96:	81 e0       	ldi	r24, 0x01	; 1
      98:	90 e0       	ldi	r25, 0x00	; 0
      9a:	02 c0       	rjmp	.+4      	; 0xa0 <DIO_udtSetPinDirection+0x1e>
      9c:	88 0f       	add	r24, r24
      9e:	99 1f       	adc	r25, r25
      a0:	6a 95       	dec	r22
      a2:	e2 f7       	brpl	.-8      	; 0x9c <DIO_udtSetPinDirection+0x1a>
      a4:	9a b3       	in	r25, 0x1a	; 26
      a6:	89 2b       	or	r24, r25
      a8:	8a bb       	out	0x1a, r24	; 26
      aa:	80 e0       	ldi	r24, 0x00	; 0
      ac:	08 95       	ret
      ae:	81 e0       	ldi	r24, 0x01	; 1
      b0:	90 e0       	ldi	r25, 0x00	; 0
      b2:	02 c0       	rjmp	.+4      	; 0xb8 <DIO_udtSetPinDirection+0x36>
      b4:	88 0f       	add	r24, r24
      b6:	99 1f       	adc	r25, r25
      b8:	6a 95       	dec	r22
      ba:	e2 f7       	brpl	.-8      	; 0xb4 <DIO_udtSetPinDirection+0x32>
      bc:	97 b3       	in	r25, 0x17	; 23
      be:	89 2b       	or	r24, r25
      c0:	87 bb       	out	0x17, r24	; 23
      c2:	80 e0       	ldi	r24, 0x00	; 0
      c4:	08 95       	ret
      c6:	81 e0       	ldi	r24, 0x01	; 1
      c8:	90 e0       	ldi	r25, 0x00	; 0
      ca:	02 c0       	rjmp	.+4      	; 0xd0 <DIO_udtSetPinDirection+0x4e>
      cc:	88 0f       	add	r24, r24
      ce:	99 1f       	adc	r25, r25
      d0:	6a 95       	dec	r22
      d2:	e2 f7       	brpl	.-8      	; 0xcc <DIO_udtSetPinDirection+0x4a>
      d4:	94 b3       	in	r25, 0x14	; 20
      d6:	89 2b       	or	r24, r25
      d8:	84 bb       	out	0x14, r24	; 20
      da:	80 e0       	ldi	r24, 0x00	; 0
      dc:	08 95       	ret
      de:	81 e0       	ldi	r24, 0x01	; 1
      e0:	90 e0       	ldi	r25, 0x00	; 0
      e2:	02 c0       	rjmp	.+4      	; 0xe8 <DIO_udtSetPinDirection+0x66>
      e4:	88 0f       	add	r24, r24
      e6:	99 1f       	adc	r25, r25
      e8:	6a 95       	dec	r22
      ea:	e2 f7       	brpl	.-8      	; 0xe4 <DIO_udtSetPinDirection+0x62>
      ec:	91 b3       	in	r25, 0x11	; 17
      ee:	89 2b       	or	r24, r25
      f0:	81 bb       	out	0x11, r24	; 17
      f2:	80 e0       	ldi	r24, 0x00	; 0
      f4:	08 95       	ret
      f6:	41 11       	cpse	r20, r1
      f8:	3e c0       	rjmp	.+124    	; 0x176 <DIO_udtSetPinDirection+0xf4>
      fa:	81 30       	cpi	r24, 0x01	; 1
      fc:	99 f0       	breq	.+38     	; 0x124 <DIO_udtSetPinDirection+0xa2>
      fe:	28 f0       	brcs	.+10     	; 0x10a <DIO_udtSetPinDirection+0x88>
     100:	82 30       	cpi	r24, 0x02	; 2
     102:	e9 f0       	breq	.+58     	; 0x13e <DIO_udtSetPinDirection+0xbc>
     104:	83 30       	cpi	r24, 0x03	; 3
     106:	41 f1       	breq	.+80     	; 0x158 <DIO_udtSetPinDirection+0xd6>
     108:	38 c0       	rjmp	.+112    	; 0x17a <DIO_udtSetPinDirection+0xf8>
     10a:	81 e0       	ldi	r24, 0x01	; 1
     10c:	90 e0       	ldi	r25, 0x00	; 0
     10e:	02 c0       	rjmp	.+4      	; 0x114 <DIO_udtSetPinDirection+0x92>
     110:	88 0f       	add	r24, r24
     112:	99 1f       	adc	r25, r25
     114:	6a 95       	dec	r22
     116:	e2 f7       	brpl	.-8      	; 0x110 <DIO_udtSetPinDirection+0x8e>
     118:	80 95       	com	r24
     11a:	9a b3       	in	r25, 0x1a	; 26
     11c:	89 23       	and	r24, r25
     11e:	8a bb       	out	0x1a, r24	; 26
     120:	80 e0       	ldi	r24, 0x00	; 0
     122:	08 95       	ret
     124:	81 e0       	ldi	r24, 0x01	; 1
     126:	90 e0       	ldi	r25, 0x00	; 0
     128:	02 c0       	rjmp	.+4      	; 0x12e <DIO_udtSetPinDirection+0xac>
     12a:	88 0f       	add	r24, r24
     12c:	99 1f       	adc	r25, r25
     12e:	6a 95       	dec	r22
     130:	e2 f7       	brpl	.-8      	; 0x12a <DIO_udtSetPinDirection+0xa8>
     132:	80 95       	com	r24
     134:	97 b3       	in	r25, 0x17	; 23
     136:	89 23       	and	r24, r25
     138:	87 bb       	out	0x17, r24	; 23
     13a:	80 e0       	ldi	r24, 0x00	; 0
     13c:	08 95       	ret
     13e:	81 e0       	ldi	r24, 0x01	; 1
     140:	90 e0       	ldi	r25, 0x00	; 0
     142:	02 c0       	rjmp	.+4      	; 0x148 <DIO_udtSetPinDirection+0xc6>
     144:	88 0f       	add	r24, r24
     146:	99 1f       	adc	r25, r25
     148:	6a 95       	dec	r22
     14a:	e2 f7       	brpl	.-8      	; 0x144 <DIO_udtSetPinDirection+0xc2>
     14c:	80 95       	com	r24
     14e:	94 b3       	in	r25, 0x14	; 20
     150:	89 23       	and	r24, r25
     152:	84 bb       	out	0x14, r24	; 20
     154:	80 e0       	ldi	r24, 0x00	; 0
     156:	08 95       	ret
     158:	81 e0       	ldi	r24, 0x01	; 1
     15a:	90 e0       	ldi	r25, 0x00	; 0
     15c:	02 c0       	rjmp	.+4      	; 0x162 <DIO_udtSetPinDirection+0xe0>
     15e:	88 0f       	add	r24, r24
     160:	99 1f       	adc	r25, r25
     162:	6a 95       	dec	r22
     164:	e2 f7       	brpl	.-8      	; 0x15e <DIO_udtSetPinDirection+0xdc>
     166:	80 95       	com	r24
     168:	91 b3       	in	r25, 0x11	; 17
     16a:	89 23       	and	r24, r25
     16c:	81 bb       	out	0x11, r24	; 17
     16e:	80 e0       	ldi	r24, 0x00	; 0
     170:	08 95       	ret
     172:	81 e0       	ldi	r24, 0x01	; 1
     174:	08 95       	ret
     176:	81 e0       	ldi	r24, 0x01	; 1
     178:	08 95       	ret
     17a:	81 e0       	ldi	r24, 0x01	; 1
     17c:	08 95       	ret

0000017e <DIO_udtSetPinValue>:
     17e:	41 30       	cpi	r20, 0x01	; 1
     180:	c1 f5       	brne	.+112    	; 0x1f2 <DIO_udtSetPinValue+0x74>
     182:	81 30       	cpi	r24, 0x01	; 1
     184:	91 f0       	breq	.+36     	; 0x1aa <DIO_udtSetPinValue+0x2c>
     186:	28 f0       	brcs	.+10     	; 0x192 <DIO_udtSetPinValue+0x14>
     188:	82 30       	cpi	r24, 0x02	; 2
     18a:	d9 f0       	breq	.+54     	; 0x1c2 <DIO_udtSetPinValue+0x44>
     18c:	83 30       	cpi	r24, 0x03	; 3
     18e:	29 f1       	breq	.+74     	; 0x1da <DIO_udtSetPinValue+0x5c>
     190:	6e c0       	rjmp	.+220    	; 0x26e <DIO_udtSetPinValue+0xf0>
     192:	81 e0       	ldi	r24, 0x01	; 1
     194:	90 e0       	ldi	r25, 0x00	; 0
     196:	02 c0       	rjmp	.+4      	; 0x19c <DIO_udtSetPinValue+0x1e>
     198:	88 0f       	add	r24, r24
     19a:	99 1f       	adc	r25, r25
     19c:	6a 95       	dec	r22
     19e:	e2 f7       	brpl	.-8      	; 0x198 <DIO_udtSetPinValue+0x1a>
     1a0:	9b b3       	in	r25, 0x1b	; 27
     1a2:	89 2b       	or	r24, r25
     1a4:	8b bb       	out	0x1b, r24	; 27
     1a6:	80 e0       	ldi	r24, 0x00	; 0
     1a8:	08 95       	ret
     1aa:	81 e0       	ldi	r24, 0x01	; 1
     1ac:	90 e0       	ldi	r25, 0x00	; 0
     1ae:	02 c0       	rjmp	.+4      	; 0x1b4 <DIO_udtSetPinValue+0x36>
     1b0:	88 0f       	add	r24, r24
     1b2:	99 1f       	adc	r25, r25
     1b4:	6a 95       	dec	r22
     1b6:	e2 f7       	brpl	.-8      	; 0x1b0 <DIO_udtSetPinValue+0x32>
     1b8:	98 b3       	in	r25, 0x18	; 24
     1ba:	89 2b       	or	r24, r25
     1bc:	88 bb       	out	0x18, r24	; 24
     1be:	80 e0       	ldi	r24, 0x00	; 0
     1c0:	08 95       	ret
     1c2:	81 e0       	ldi	r24, 0x01	; 1
     1c4:	90 e0       	ldi	r25, 0x00	; 0
     1c6:	02 c0       	rjmp	.+4      	; 0x1cc <DIO_udtSetPinValue+0x4e>
     1c8:	88 0f       	add	r24, r24
     1ca:	99 1f       	adc	r25, r25
     1cc:	6a 95       	dec	r22
     1ce:	e2 f7       	brpl	.-8      	; 0x1c8 <DIO_udtSetPinValue+0x4a>
     1d0:	95 b3       	in	r25, 0x15	; 21
     1d2:	89 2b       	or	r24, r25
     1d4:	85 bb       	out	0x15, r24	; 21
     1d6:	80 e0       	ldi	r24, 0x00	; 0
     1d8:	08 95       	ret
     1da:	81 e0       	ldi	r24, 0x01	; 1
     1dc:	90 e0       	ldi	r25, 0x00	; 0
     1de:	02 c0       	rjmp	.+4      	; 0x1e4 <DIO_udtSetPinValue+0x66>
     1e0:	88 0f       	add	r24, r24
     1e2:	99 1f       	adc	r25, r25
     1e4:	6a 95       	dec	r22
     1e6:	e2 f7       	brpl	.-8      	; 0x1e0 <DIO_udtSetPinValue+0x62>
     1e8:	92 b3       	in	r25, 0x12	; 18
     1ea:	89 2b       	or	r24, r25
     1ec:	82 bb       	out	0x12, r24	; 18
     1ee:	80 e0       	ldi	r24, 0x00	; 0
     1f0:	08 95       	ret
     1f2:	41 11       	cpse	r20, r1
     1f4:	3e c0       	rjmp	.+124    	; 0x272 <DIO_udtSetPinValue+0xf4>
     1f6:	81 30       	cpi	r24, 0x01	; 1
     1f8:	99 f0       	breq	.+38     	; 0x220 <DIO_udtSetPinValue+0xa2>
     1fa:	28 f0       	brcs	.+10     	; 0x206 <DIO_udtSetPinValue+0x88>
     1fc:	82 30       	cpi	r24, 0x02	; 2
     1fe:	e9 f0       	breq	.+58     	; 0x23a <DIO_udtSetPinValue+0xbc>
     200:	83 30       	cpi	r24, 0x03	; 3
     202:	41 f1       	breq	.+80     	; 0x254 <DIO_udtSetPinValue+0xd6>
     204:	38 c0       	rjmp	.+112    	; 0x276 <DIO_udtSetPinValue+0xf8>
     206:	81 e0       	ldi	r24, 0x01	; 1
     208:	90 e0       	ldi	r25, 0x00	; 0
     20a:	02 c0       	rjmp	.+4      	; 0x210 <DIO_udtSetPinValue+0x92>
     20c:	88 0f       	add	r24, r24
     20e:	99 1f       	adc	r25, r25
     210:	6a 95       	dec	r22
     212:	e2 f7       	brpl	.-8      	; 0x20c <DIO_udtSetPinValue+0x8e>
     214:	80 95       	com	r24
     216:	9b b3       	in	r25, 0x1b	; 27
     218:	89 23       	and	r24, r25
     21a:	8b bb       	out	0x1b, r24	; 27
     21c:	80 e0       	ldi	r24, 0x00	; 0
     21e:	08 95       	ret
     220:	81 e0       	ldi	r24, 0x01	; 1
     222:	90 e0       	ldi	r25, 0x00	; 0
     224:	02 c0       	rjmp	.+4      	; 0x22a <DIO_udtSetPinValue+0xac>
     226:	88 0f       	add	r24, r24
     228:	99 1f       	adc	r25, r25
     22a:	6a 95       	dec	r22
     22c:	e2 f7       	brpl	.-8      	; 0x226 <DIO_udtSetPinValue+0xa8>
     22e:	80 95       	com	r24
     230:	98 b3       	in	r25, 0x18	; 24
     232:	89 23       	and	r24, r25
     234:	88 bb       	out	0x18, r24	; 24
     236:	80 e0       	ldi	r24, 0x00	; 0
     238:	08 95       	ret
     23a:	81 e0       	ldi	r24, 0x01	; 1
     23c:	90 e0       	ldi	r25, 0x00	; 0
     23e:	02 c0       	rjmp	.+4      	; 0x244 <DIO_udtSetPinValue+0xc6>
     240:	88 0f       	add	r24, r24
     242:	99 1f       	adc	r25, r25
     244:	6a 95       	dec	r22
     246:	e2 f7       	brpl	.-8      	; 0x240 <DIO_udtSetPinValue+0xc2>
     248:	80 95       	com	r24
     24a:	95 b3       	in	r25, 0x15	; 21
     24c:	89 23       	and	r24, r25
     24e:	85 bb       	out	0x15, r24	; 21
     250:	80 e0       	ldi	r24, 0x00	; 0
     252:	08 95       	ret
     254:	81 e0       	ldi	r24, 0x01	; 1
     256:	90 e0       	ldi	r25, 0x00	; 0
     258:	02 c0       	rjmp	.+4      	; 0x25e <DIO_udtSetPinValue+0xe0>
     25a:	88 0f       	add	r24, r24
     25c:	99 1f       	adc	r25, r25
     25e:	6a 95       	dec	r22
     260:	e2 f7       	brpl	.-8      	; 0x25a <DIO_udtSetPinValue+0xdc>
     262:	80 95       	com	r24
     264:	92 b3       	in	r25, 0x12	; 18
     266:	89 23       	and	r24, r25
     268:	82 bb       	out	0x12, r24	; 18
     26a:	80 e0       	ldi	r24, 0x00	; 0
     26c:	08 95       	ret
     26e:	81 e0       	ldi	r24, 0x01	; 1
     270:	08 95       	ret
     272:	81 e0       	ldi	r24, 0x01	; 1
     274:	08 95       	ret
     276:	81 e0       	ldi	r24, 0x01	; 1
     278:	08 95       	ret

0000027a <DIO_udtGetPinValue>:
     27a:	81 30       	cpi	r24, 0x01	; 1
     27c:	91 f0       	breq	.+36     	; 0x2a2 <DIO_udtGetPinValue+0x28>
     27e:	28 f0       	brcs	.+10     	; 0x28a <DIO_udtGetPinValue+0x10>
     280:	82 30       	cpi	r24, 0x02	; 2
     282:	d9 f0       	breq	.+54     	; 0x2ba <DIO_udtGetPinValue+0x40>
     284:	83 30       	cpi	r24, 0x03	; 3
     286:	29 f1       	breq	.+74     	; 0x2d2 <DIO_udtGetPinValue+0x58>
     288:	30 c0       	rjmp	.+96     	; 0x2ea <DIO_udtGetPinValue+0x70>
     28a:	89 b3       	in	r24, 0x19	; 25
     28c:	90 e0       	ldi	r25, 0x00	; 0
     28e:	02 c0       	rjmp	.+4      	; 0x294 <DIO_udtGetPinValue+0x1a>
     290:	95 95       	asr	r25
     292:	87 95       	ror	r24
     294:	6a 95       	dec	r22
     296:	e2 f7       	brpl	.-8      	; 0x290 <DIO_udtGetPinValue+0x16>
     298:	81 70       	andi	r24, 0x01	; 1
     29a:	fa 01       	movw	r30, r20
     29c:	80 83       	st	Z, r24
     29e:	80 e0       	ldi	r24, 0x00	; 0
     2a0:	08 95       	ret
     2a2:	86 b3       	in	r24, 0x16	; 22
     2a4:	90 e0       	ldi	r25, 0x00	; 0
     2a6:	02 c0       	rjmp	.+4      	; 0x2ac <DIO_udtGetPinValue+0x32>
     2a8:	95 95       	asr	r25
     2aa:	87 95       	ror	r24
     2ac:	6a 95       	dec	r22
     2ae:	e2 f7       	brpl	.-8      	; 0x2a8 <DIO_udtGetPinValue+0x2e>
     2b0:	81 70       	andi	r24, 0x01	; 1
     2b2:	fa 01       	movw	r30, r20
     2b4:	80 83       	st	Z, r24
     2b6:	80 e0       	ldi	r24, 0x00	; 0
     2b8:	08 95       	ret
     2ba:	83 b3       	in	r24, 0x13	; 19
     2bc:	90 e0       	ldi	r25, 0x00	; 0
     2be:	02 c0       	rjmp	.+4      	; 0x2c4 <DIO_udtGetPinValue+0x4a>
     2c0:	95 95       	asr	r25
     2c2:	87 95       	ror	r24
     2c4:	6a 95       	dec	r22
     2c6:	e2 f7       	brpl	.-8      	; 0x2c0 <DIO_udtGetPinValue+0x46>
     2c8:	81 70       	andi	r24, 0x01	; 1
     2ca:	fa 01       	movw	r30, r20
     2cc:	80 83       	st	Z, r24
     2ce:	80 e0       	ldi	r24, 0x00	; 0
     2d0:	08 95       	ret
     2d2:	80 b3       	in	r24, 0x10	; 16
     2d4:	90 e0       	ldi	r25, 0x00	; 0
     2d6:	02 c0       	rjmp	.+4      	; 0x2dc <DIO_udtGetPinValue+0x62>
     2d8:	95 95       	asr	r25
     2da:	87 95       	ror	r24
     2dc:	6a 95       	dec	r22
     2de:	e2 f7       	brpl	.-8      	; 0x2d8 <DIO_udtGetPinValue+0x5e>
     2e0:	81 70       	andi	r24, 0x01	; 1
     2e2:	fa 01       	movw	r30, r20
     2e4:	80 83       	st	Z, r24
     2e6:	80 e0       	ldi	r24, 0x00	; 0
     2e8:	08 95       	ret
     2ea:	81 e0       	ldi	r24, 0x01	; 1
     2ec:	08 95       	ret

000002ee <DIO_udtSetPortValue>:
	unit8 u8Port,
	unit8 u8Value
)
{
	Std_ReturnType udtReturnType=E_NOT_OK;
	switch(u8Port)
     2ee:	81 30       	cpi	r24, 0x01	; 1
     2f0:	49 f0       	breq	.+18     	; 0x304 <DIO_udtSetPortValue+0x16>
     2f2:	28 f0       	brcs	.+10     	; 0x2fe <DIO_udtSetPortValue+0x10>
     2f4:	82 30       	cpi	r24, 0x02	; 2
     2f6:	49 f0       	breq	.+18     	; 0x30a <DIO_udtSetPortValue+0x1c>
     2f8:	83 30       	cpi	r24, 0x03	; 3
     2fa:	51 f0       	breq	.+20     	; 0x310 <DIO_udtSetPortValue+0x22>
     2fc:	0c c0       	rjmp	.+24     	; 0x316 <DIO_udtSetPortValue+0x28>
	{
		case DIO_PORTA:DIO->PORTA = u8Value;udtReturnType = E_OK;break;
     2fe:	6b bb       	out	0x1b, r22	; 27
     300:	80 e0       	ldi	r24, 0x00	; 0
     302:	08 95       	ret
		case DIO_PORTB:DIO->PORTB = u8Value;udtReturnType = E_OK;break;
     304:	68 bb       	out	0x18, r22	; 24
     306:	80 e0       	ldi	r24, 0x00	; 0
     308:	08 95       	ret
		case DIO_PORTC:DIO->PORTC = u8Value;udtReturnType = E_OK;break;
     30a:	65 bb       	out	0x15, r22	; 21
     30c:	80 e0       	ldi	r24, 0x00	; 0
     30e:	08 95       	ret
		case DIO_PORTD:DIO->PORTD = u8Value;udtReturnType = E_OK;break;
     310:	62 bb       	out	0x12, r22	; 18
     312:	80 e0       	ldi	r24, 0x00	; 0
     314:	08 95       	ret
(
	unit8 u8Port,
	unit8 u8Value
)
{
	Std_ReturnType udtReturnType=E_NOT_OK;
     316:	81 e0       	ldi	r24, 0x01	; 1
		case DIO_PORTC:DIO->PORTC = u8Value;udtReturnType = E_OK;break;
		case DIO_PORTD:DIO->PORTD = u8Value;udtReturnType = E_OK;break;
		default:/*!Comment: DO nothing*/break;
	}
	return udtReturnType;
}
     318:	08 95       	ret

0000031a <DIO_udtGetPortValue>:
)
{
	
	
	Std_ReturnType udtReturnType=E_NOT_OK;
	switch(u8Port)
     31a:	81 30       	cpi	r24, 0x01	; 1
     31c:	59 f0       	breq	.+22     	; 0x334 <DIO_udtGetPortValue+0x1a>
     31e:	28 f0       	brcs	.+10     	; 0x32a <DIO_udtGetPortValue+0x10>
     320:	82 30       	cpi	r24, 0x02	; 2
     322:	69 f0       	breq	.+26     	; 0x33e <DIO_udtGetPortValue+0x24>
     324:	83 30       	cpi	r24, 0x03	; 3
     326:	81 f0       	breq	.+32     	; 0x348 <DIO_udtGetPortValue+0x2e>
     328:	14 c0       	rjmp	.+40     	; 0x352 <DIO_udtGetPortValue+0x38>
	{
		case DIO_PORTA:*pu8Value = DIO->PINA;udtReturnType = E_OK;break;
     32a:	89 b3       	in	r24, 0x19	; 25
     32c:	fb 01       	movw	r30, r22
     32e:	80 83       	st	Z, r24
     330:	80 e0       	ldi	r24, 0x00	; 0
     332:	08 95       	ret
		case DIO_PORTB:*pu8Value = DIO->PINB;udtReturnType = E_OK;break;
     334:	86 b3       	in	r24, 0x16	; 22
     336:	fb 01       	movw	r30, r22
     338:	80 83       	st	Z, r24
     33a:	80 e0       	ldi	r24, 0x00	; 0
     33c:	08 95       	ret
		case DIO_PORTC:*pu8Value = DIO->PINC;udtReturnType = E_OK;break;
     33e:	83 b3       	in	r24, 0x13	; 19
     340:	fb 01       	movw	r30, r22
     342:	80 83       	st	Z, r24
     344:	80 e0       	ldi	r24, 0x00	; 0
     346:	08 95       	ret
		case DIO_PORTD:*pu8Value = DIO->PIND;udtReturnType = E_OK;break;
     348:	80 b3       	in	r24, 0x10	; 16
     34a:	fb 01       	movw	r30, r22
     34c:	80 83       	st	Z, r24
     34e:	80 e0       	ldi	r24, 0x00	; 0
     350:	08 95       	ret
	unit8* pu8Value
)
{
	
	
	Std_ReturnType udtReturnType=E_NOT_OK;
     352:	81 e0       	ldi	r24, 0x01	; 1
	
	return udtReturnType;
	
	
	
}
     354:	08 95       	ret

00000356 <KEYPAD_udtInit>:
#include <util/delay.h>

Std_ReturnType KEYPAD_udtInit(void)
{
	Std_ReturnType udtReturnType=E_NOT_OK;
	udtReturnType=DIO_udtSetPinDirection(KEYPAD_R0_PIN, DIO_OUTPUT);
     356:	41 e0       	ldi	r20, 0x01	; 1
     358:	60 e0       	ldi	r22, 0x00	; 0
     35a:	82 e0       	ldi	r24, 0x02	; 2
     35c:	0e 94 41 00 	call	0x82	; 0x82 <DIO_udtSetPinDirection>
	udtReturnType=DIO_udtSetPinDirection(KEYPAD_R1_PIN, DIO_OUTPUT);
     360:	41 e0       	ldi	r20, 0x01	; 1
     362:	61 e0       	ldi	r22, 0x01	; 1
     364:	82 e0       	ldi	r24, 0x02	; 2
     366:	0e 94 41 00 	call	0x82	; 0x82 <DIO_udtSetPinDirection>
	udtReturnType=DIO_udtSetPinDirection(KEYPAD_R2_PIN, DIO_OUTPUT);
     36a:	41 e0       	ldi	r20, 0x01	; 1
     36c:	64 e0       	ldi	r22, 0x04	; 4
     36e:	83 e0       	ldi	r24, 0x03	; 3
     370:	0e 94 41 00 	call	0x82	; 0x82 <DIO_udtSetPinDirection>
	udtReturnType=DIO_udtSetPinDirection(KEYPAD_R3_PIN, DIO_OUTPUT);
     374:	41 e0       	ldi	r20, 0x01	; 1
     376:	63 e0       	ldi	r22, 0x03	; 3
     378:	82 e0       	ldi	r24, 0x02	; 2
     37a:	0e 94 41 00 	call	0x82	; 0x82 <DIO_udtSetPinDirection>
	
	
	udtReturnType=DIO_udtSetPinValue(KEYPAD_R0_PIN, DIO_HIGH);
     37e:	41 e0       	ldi	r20, 0x01	; 1
     380:	60 e0       	ldi	r22, 0x00	; 0
     382:	82 e0       	ldi	r24, 0x02	; 2
     384:	0e 94 bf 00 	call	0x17e	; 0x17e <DIO_udtSetPinValue>
	udtReturnType=DIO_udtSetPinValue(KEYPAD_R1_PIN, DIO_HIGH);
     388:	41 e0       	ldi	r20, 0x01	; 1
     38a:	61 e0       	ldi	r22, 0x01	; 1
     38c:	82 e0       	ldi	r24, 0x02	; 2
     38e:	0e 94 bf 00 	call	0x17e	; 0x17e <DIO_udtSetPinValue>
	udtReturnType=DIO_udtSetPinValue(KEYPAD_R2_PIN, DIO_HIGH);
     392:	41 e0       	ldi	r20, 0x01	; 1
     394:	64 e0       	ldi	r22, 0x04	; 4
     396:	83 e0       	ldi	r24, 0x03	; 3
     398:	0e 94 bf 00 	call	0x17e	; 0x17e <DIO_udtSetPinValue>
	udtReturnType=DIO_udtSetPinValue(KEYPAD_R3_PIN, DIO_HIGH);
     39c:	41 e0       	ldi	r20, 0x01	; 1
     39e:	63 e0       	ldi	r22, 0x03	; 3
     3a0:	82 e0       	ldi	r24, 0x02	; 2
     3a2:	0e 94 bf 00 	call	0x17e	; 0x17e <DIO_udtSetPinValue>
	
	
	udtReturnType=DIO_udtSetPinDirection(KEYPAD_C0_PIN, DIO_INPUT);
     3a6:	40 e0       	ldi	r20, 0x00	; 0
     3a8:	64 e0       	ldi	r22, 0x04	; 4
     3aa:	82 e0       	ldi	r24, 0x02	; 2
     3ac:	0e 94 41 00 	call	0x82	; 0x82 <DIO_udtSetPinDirection>
	udtReturnType=DIO_udtSetPinDirection(KEYPAD_C1_PIN, DIO_INPUT);
     3b0:	40 e0       	ldi	r20, 0x00	; 0
     3b2:	65 e0       	ldi	r22, 0x05	; 5
     3b4:	82 e0       	ldi	r24, 0x02	; 2
     3b6:	0e 94 41 00 	call	0x82	; 0x82 <DIO_udtSetPinDirection>
	udtReturnType=DIO_udtSetPinDirection(KEYPAD_C2_PIN, DIO_INPUT);
     3ba:	40 e0       	ldi	r20, 0x00	; 0
     3bc:	66 e0       	ldi	r22, 0x06	; 6
     3be:	82 e0       	ldi	r24, 0x02	; 2
     3c0:	0e 94 41 00 	call	0x82	; 0x82 <DIO_udtSetPinDirection>
	udtReturnType=DIO_udtSetPinDirection(KEYPAD_C3_PIN, DIO_INPUT);
     3c4:	40 e0       	ldi	r20, 0x00	; 0
     3c6:	65 e0       	ldi	r22, 0x05	; 5
     3c8:	83 e0       	ldi	r24, 0x03	; 3
     3ca:	0e 94 41 00 	call	0x82	; 0x82 <DIO_udtSetPinDirection>
	
	
	udtReturnType=DIO_udtSetPinValue(KEYPAD_C0_PIN, DIO_HIGH);
     3ce:	41 e0       	ldi	r20, 0x01	; 1
     3d0:	64 e0       	ldi	r22, 0x04	; 4
     3d2:	82 e0       	ldi	r24, 0x02	; 2
     3d4:	0e 94 bf 00 	call	0x17e	; 0x17e <DIO_udtSetPinValue>
	udtReturnType=DIO_udtSetPinValue(KEYPAD_C1_PIN, DIO_HIGH);
     3d8:	41 e0       	ldi	r20, 0x01	; 1
     3da:	65 e0       	ldi	r22, 0x05	; 5
     3dc:	82 e0       	ldi	r24, 0x02	; 2
     3de:	0e 94 bf 00 	call	0x17e	; 0x17e <DIO_udtSetPinValue>
	udtReturnType=DIO_udtSetPinValue(KEYPAD_C2_PIN, DIO_HIGH);
     3e2:	41 e0       	ldi	r20, 0x01	; 1
     3e4:	66 e0       	ldi	r22, 0x06	; 6
     3e6:	82 e0       	ldi	r24, 0x02	; 2
     3e8:	0e 94 bf 00 	call	0x17e	; 0x17e <DIO_udtSetPinValue>
	udtReturnType=DIO_udtSetPinValue(KEYPAD_C3_PIN, DIO_HIGH);
     3ec:	41 e0       	ldi	r20, 0x01	; 1
     3ee:	65 e0       	ldi	r22, 0x05	; 5
     3f0:	83 e0       	ldi	r24, 0x03	; 3
     3f2:	0e 94 bf 00 	call	0x17e	; 0x17e <DIO_udtSetPinValue>
	
	return udtReturnType;
}
     3f6:	08 95       	ret

000003f8 <KEYPAD_udtGetPressedKey>:


Std_ReturnType KEYPAD_udtGetPressedKey(unit8 * pu8Value)
{
     3f8:	ef 92       	push	r14
     3fa:	ff 92       	push	r15
     3fc:	0f 93       	push	r16
     3fe:	1f 93       	push	r17
     400:	cf 93       	push	r28
     402:	df 93       	push	r29
     404:	cd b7       	in	r28, 0x3d	; 61
     406:	de b7       	in	r29, 0x3e	; 62
     408:	61 97       	sbiw	r28, 0x11	; 17
     40a:	0f b6       	in	r0, 0x3f	; 63
     40c:	f8 94       	cli
     40e:	de bf       	out	0x3e, r29	; 62
     410:	0f be       	out	0x3f, r0	; 63
     412:	cd bf       	out	0x3d, r28	; 61
     414:	7c 01       	movw	r14, r24
	Std_ReturnType udtReturnType=E_NOT_OK;
	*pu8Value=KEYPAD_NOT_PRESSED;
     416:	8e e4       	ldi	r24, 0x4E	; 78
     418:	f7 01       	movw	r30, r14
     41a:	80 83       	st	Z, r24
	unit8 u8KeypadMatrix[ROW_NUM][COL_NUM]=KPD_BUTTONS;
     41c:	80 e1       	ldi	r24, 0x10	; 16
     41e:	e8 ed       	ldi	r30, 0xD8	; 216
     420:	f0 e0       	ldi	r31, 0x00	; 0
     422:	de 01       	movw	r26, r28
     424:	11 96       	adiw	r26, 0x01	; 1
     426:	01 90       	ld	r0, Z+
     428:	0d 92       	st	X+, r0
     42a:	8a 95       	dec	r24
     42c:	e1 f7       	brne	.-8      	; 0x426 <__EEPROM_REGION_LENGTH__+0x26>
	unit8 u8ColumID,u8RowID,u8PinState=0;
     42e:	19 8a       	std	Y+17, r1	; 0x11
	for(u8RowID=0u;u8RowID<ROW_NUM;u8RowID++)
     430:	00 e0       	ldi	r16, 0x00	; 0
}


Std_ReturnType KEYPAD_udtGetPressedKey(unit8 * pu8Value)
{
	Std_ReturnType udtReturnType=E_NOT_OK;
     432:	81 e0       	ldi	r24, 0x01	; 1
	*pu8Value=KEYPAD_NOT_PRESSED;
	unit8 u8KeypadMatrix[ROW_NUM][COL_NUM]=KPD_BUTTONS;
	unit8 u8ColumID,u8RowID,u8PinState=0;
	for(u8RowID=0u;u8RowID<ROW_NUM;u8RowID++)
     434:	86 c0       	rjmp	.+268    	; 0x542 <__EEPROM_REGION_LENGTH__+0x142>
	{
		switch(u8RowID)
     436:	01 30       	cpi	r16, 0x01	; 1
     438:	61 f0       	breq	.+24     	; 0x452 <__EEPROM_REGION_LENGTH__+0x52>
     43a:	28 f0       	brcs	.+10     	; 0x446 <__EEPROM_REGION_LENGTH__+0x46>
     43c:	02 30       	cpi	r16, 0x02	; 2
     43e:	79 f0       	breq	.+30     	; 0x45e <__EEPROM_REGION_LENGTH__+0x5e>
     440:	03 30       	cpi	r16, 0x03	; 3
     442:	a1 f0       	breq	.+40     	; 0x46c <__EEPROM_REGION_LENGTH__+0x6c>
     444:	11 c0       	rjmp	.+34     	; 0x468 <__EEPROM_REGION_LENGTH__+0x68>
		{
			case 0:udtReturnType=DIO_udtSetPinValue(KEYPAD_R0_PIN , DIO_LOW);break;
     446:	40 e0       	ldi	r20, 0x00	; 0
     448:	60 e0       	ldi	r22, 0x00	; 0
     44a:	82 e0       	ldi	r24, 0x02	; 2
     44c:	0e 94 bf 00 	call	0x17e	; 0x17e <DIO_udtSetPinValue>
     450:	0b c0       	rjmp	.+22     	; 0x468 <__EEPROM_REGION_LENGTH__+0x68>
			case 1:udtReturnType=DIO_udtSetPinValue(KEYPAD_R1_PIN , DIO_LOW);break;
     452:	40 e0       	ldi	r20, 0x00	; 0
     454:	61 e0       	ldi	r22, 0x01	; 1
     456:	82 e0       	ldi	r24, 0x02	; 2
     458:	0e 94 bf 00 	call	0x17e	; 0x17e <DIO_udtSetPinValue>
     45c:	05 c0       	rjmp	.+10     	; 0x468 <__EEPROM_REGION_LENGTH__+0x68>
			case 2:udtReturnType=DIO_udtSetPinValue(KEYPAD_R2_PIN , DIO_LOW);break;
     45e:	40 e0       	ldi	r20, 0x00	; 0
     460:	64 e0       	ldi	r22, 0x04	; 4
     462:	83 e0       	ldi	r24, 0x03	; 3
     464:	0e 94 bf 00 	call	0x17e	; 0x17e <DIO_udtSetPinValue>
	return udtReturnType;
}


Std_ReturnType KEYPAD_udtGetPressedKey(unit8 * pu8Value)
{
     468:	10 e0       	ldi	r17, 0x00	; 0
     46a:	43 c0       	rjmp	.+134    	; 0x4f2 <__EEPROM_REGION_LENGTH__+0xf2>
		switch(u8RowID)
		{
			case 0:udtReturnType=DIO_udtSetPinValue(KEYPAD_R0_PIN , DIO_LOW);break;
			case 1:udtReturnType=DIO_udtSetPinValue(KEYPAD_R1_PIN , DIO_LOW);break;
			case 2:udtReturnType=DIO_udtSetPinValue(KEYPAD_R2_PIN , DIO_LOW);break;
			case 3:udtReturnType=DIO_udtSetPinValue(KEYPAD_R3_PIN , DIO_LOW);break;
     46c:	40 e0       	ldi	r20, 0x00	; 0
     46e:	63 e0       	ldi	r22, 0x03	; 3
     470:	82 e0       	ldi	r24, 0x02	; 2
     472:	0e 94 bf 00 	call	0x17e	; 0x17e <DIO_udtSetPinValue>
     476:	f8 cf       	rjmp	.-16     	; 0x468 <__EEPROM_REGION_LENGTH__+0x68>
			default:udtReturnType=E_NOT_OK;break;
		}
		for(u8ColumID=0u;u8ColumID<COL_NUM;u8ColumID++)
		{
			switch(u8ColumID)
     478:	11 30       	cpi	r17, 0x01	; 1
     47a:	71 f0       	breq	.+28     	; 0x498 <__EEPROM_REGION_LENGTH__+0x98>
     47c:	28 f0       	brcs	.+10     	; 0x488 <__EEPROM_REGION_LENGTH__+0x88>
     47e:	12 30       	cpi	r17, 0x02	; 2
     480:	99 f0       	breq	.+38     	; 0x4a8 <__EEPROM_REGION_LENGTH__+0xa8>
     482:	13 30       	cpi	r17, 0x03	; 3
     484:	c9 f0       	breq	.+50     	; 0x4b8 <__EEPROM_REGION_LENGTH__+0xb8>
     486:	1f c0       	rjmp	.+62     	; 0x4c6 <__EEPROM_REGION_LENGTH__+0xc6>
			{
				case 0:udtReturnType=DIO_udtGetPinValue(KEYPAD_C0_PIN,&u8PinState);break;
     488:	ae 01       	movw	r20, r28
     48a:	4f 5e       	subi	r20, 0xEF	; 239
     48c:	5f 4f       	sbci	r21, 0xFF	; 255
     48e:	64 e0       	ldi	r22, 0x04	; 4
     490:	82 e0       	ldi	r24, 0x02	; 2
     492:	0e 94 3d 01 	call	0x27a	; 0x27a <DIO_udtGetPinValue>
     496:	17 c0       	rjmp	.+46     	; 0x4c6 <__EEPROM_REGION_LENGTH__+0xc6>
				case 1:udtReturnType=DIO_udtGetPinValue(KEYPAD_C1_PIN,&u8PinState);break;
     498:	ae 01       	movw	r20, r28
     49a:	4f 5e       	subi	r20, 0xEF	; 239
     49c:	5f 4f       	sbci	r21, 0xFF	; 255
     49e:	65 e0       	ldi	r22, 0x05	; 5
     4a0:	82 e0       	ldi	r24, 0x02	; 2
     4a2:	0e 94 3d 01 	call	0x27a	; 0x27a <DIO_udtGetPinValue>
     4a6:	0f c0       	rjmp	.+30     	; 0x4c6 <__EEPROM_REGION_LENGTH__+0xc6>
				case 2:udtReturnType=DIO_udtGetPinValue(KEYPAD_C2_PIN,&u8PinState);break;
     4a8:	ae 01       	movw	r20, r28
     4aa:	4f 5e       	subi	r20, 0xEF	; 239
     4ac:	5f 4f       	sbci	r21, 0xFF	; 255
     4ae:	66 e0       	ldi	r22, 0x06	; 6
     4b0:	82 e0       	ldi	r24, 0x02	; 2
     4b2:	0e 94 3d 01 	call	0x27a	; 0x27a <DIO_udtGetPinValue>
     4b6:	07 c0       	rjmp	.+14     	; 0x4c6 <__EEPROM_REGION_LENGTH__+0xc6>
				case 3:udtReturnType=DIO_udtGetPinValue(KEYPAD_C3_PIN,&u8PinState);break;
     4b8:	ae 01       	movw	r20, r28
     4ba:	4f 5e       	subi	r20, 0xEF	; 239
     4bc:	5f 4f       	sbci	r21, 0xFF	; 255
     4be:	65 e0       	ldi	r22, 0x05	; 5
     4c0:	83 e0       	ldi	r24, 0x03	; 3
     4c2:	0e 94 3d 01 	call	0x27a	; 0x27a <DIO_udtGetPinValue>
				default:udtReturnType=E_NOT_OK;break;
			}
			if(u8PinState==0)
     4c6:	89 89       	ldd	r24, Y+17	; 0x11
     4c8:	81 11       	cpse	r24, r1
     4ca:	12 c0       	rjmp	.+36     	; 0x4f0 <__EEPROM_REGION_LENGTH__+0xf0>
			{
				*pu8Value= u8KeypadMatrix[u8RowID][u8ColumID];
     4cc:	e0 2f       	mov	r30, r16
     4ce:	f0 e0       	ldi	r31, 0x00	; 0
     4d0:	ee 0f       	add	r30, r30
     4d2:	ff 1f       	adc	r31, r31
     4d4:	ee 0f       	add	r30, r30
     4d6:	ff 1f       	adc	r31, r31
     4d8:	81 e0       	ldi	r24, 0x01	; 1
     4da:	90 e0       	ldi	r25, 0x00	; 0
     4dc:	8c 0f       	add	r24, r28
     4de:	9d 1f       	adc	r25, r29
     4e0:	e8 0f       	add	r30, r24
     4e2:	f9 1f       	adc	r31, r25
     4e4:	e1 0f       	add	r30, r17
     4e6:	f1 1d       	adc	r31, r1
     4e8:	80 81       	ld	r24, Z
     4ea:	f7 01       	movw	r30, r14
     4ec:	80 83       	st	Z, r24
				break;
     4ee:	03 c0       	rjmp	.+6      	; 0x4f6 <__EEPROM_REGION_LENGTH__+0xf6>
			case 1:udtReturnType=DIO_udtSetPinValue(KEYPAD_R1_PIN , DIO_LOW);break;
			case 2:udtReturnType=DIO_udtSetPinValue(KEYPAD_R2_PIN , DIO_LOW);break;
			case 3:udtReturnType=DIO_udtSetPinValue(KEYPAD_R3_PIN , DIO_LOW);break;
			default:udtReturnType=E_NOT_OK;break;
		}
		for(u8ColumID=0u;u8ColumID<COL_NUM;u8ColumID++)
     4f0:	1f 5f       	subi	r17, 0xFF	; 255
     4f2:	14 30       	cpi	r17, 0x04	; 4
     4f4:	08 f2       	brcs	.-126    	; 0x478 <__EEPROM_REGION_LENGTH__+0x78>
			{
				
			}
			
		}
		switch(u8RowID)
     4f6:	01 30       	cpi	r16, 0x01	; 1
     4f8:	61 f0       	breq	.+24     	; 0x512 <__EEPROM_REGION_LENGTH__+0x112>
     4fa:	28 f0       	brcs	.+10     	; 0x506 <__EEPROM_REGION_LENGTH__+0x106>
     4fc:	02 30       	cpi	r16, 0x02	; 2
     4fe:	79 f0       	breq	.+30     	; 0x51e <__EEPROM_REGION_LENGTH__+0x11e>
     500:	03 30       	cpi	r16, 0x03	; 3
     502:	99 f0       	breq	.+38     	; 0x52a <__EEPROM_REGION_LENGTH__+0x12a>
     504:	18 c0       	rjmp	.+48     	; 0x536 <__EEPROM_REGION_LENGTH__+0x136>
		{
			case 0:udtReturnType=DIO_udtSetPinValue(KEYPAD_R0_PIN , DIO_HIGH);break;
     506:	41 e0       	ldi	r20, 0x01	; 1
     508:	60 e0       	ldi	r22, 0x00	; 0
     50a:	82 e0       	ldi	r24, 0x02	; 2
     50c:	0e 94 bf 00 	call	0x17e	; 0x17e <DIO_udtSetPinValue>
     510:	13 c0       	rjmp	.+38     	; 0x538 <__EEPROM_REGION_LENGTH__+0x138>
			case 1:udtReturnType=DIO_udtSetPinValue(KEYPAD_R1_PIN , DIO_HIGH);break;
     512:	41 e0       	ldi	r20, 0x01	; 1
     514:	61 e0       	ldi	r22, 0x01	; 1
     516:	82 e0       	ldi	r24, 0x02	; 2
     518:	0e 94 bf 00 	call	0x17e	; 0x17e <DIO_udtSetPinValue>
     51c:	0d c0       	rjmp	.+26     	; 0x538 <__EEPROM_REGION_LENGTH__+0x138>
			case 2:udtReturnType=DIO_udtSetPinValue(KEYPAD_R2_PIN , DIO_HIGH);break;
     51e:	41 e0       	ldi	r20, 0x01	; 1
     520:	64 e0       	ldi	r22, 0x04	; 4
     522:	83 e0       	ldi	r24, 0x03	; 3
     524:	0e 94 bf 00 	call	0x17e	; 0x17e <DIO_udtSetPinValue>
     528:	07 c0       	rjmp	.+14     	; 0x538 <__EEPROM_REGION_LENGTH__+0x138>
			case 3:udtReturnType=DIO_udtSetPinValue(KEYPAD_R3_PIN , DIO_HIGH);break;
     52a:	41 e0       	ldi	r20, 0x01	; 1
     52c:	63 e0       	ldi	r22, 0x03	; 3
     52e:	82 e0       	ldi	r24, 0x02	; 2
     530:	0e 94 bf 00 	call	0x17e	; 0x17e <DIO_udtSetPinValue>
     534:	01 c0       	rjmp	.+2      	; 0x538 <__EEPROM_REGION_LENGTH__+0x138>
			default:udtReturnType=E_NOT_OK;break;
     536:	81 e0       	ldi	r24, 0x01	; 1
		}
		if(*pu8Value!=KEYPAD_NOT_PRESSED)
     538:	f7 01       	movw	r30, r14
     53a:	90 81       	ld	r25, Z
     53c:	9e 34       	cpi	r25, 0x4E	; 78
     53e:	21 f4       	brne	.+8      	; 0x548 <__EEPROM_REGION_LENGTH__+0x148>
{
	Std_ReturnType udtReturnType=E_NOT_OK;
	*pu8Value=KEYPAD_NOT_PRESSED;
	unit8 u8KeypadMatrix[ROW_NUM][COL_NUM]=KPD_BUTTONS;
	unit8 u8ColumID,u8RowID,u8PinState=0;
	for(u8RowID=0u;u8RowID<ROW_NUM;u8RowID++)
     540:	0f 5f       	subi	r16, 0xFF	; 255
     542:	04 30       	cpi	r16, 0x04	; 4
     544:	08 f4       	brcc	.+2      	; 0x548 <__EEPROM_REGION_LENGTH__+0x148>
     546:	77 cf       	rjmp	.-274    	; 0x436 <__EEPROM_REGION_LENGTH__+0x36>
		}
	}
	
	return udtReturnType;
	
}
     548:	61 96       	adiw	r28, 0x11	; 17
     54a:	0f b6       	in	r0, 0x3f	; 63
     54c:	f8 94       	cli
     54e:	de bf       	out	0x3e, r29	; 62
     550:	0f be       	out	0x3f, r0	; 63
     552:	cd bf       	out	0x3d, r28	; 61
     554:	df 91       	pop	r29
     556:	cf 91       	pop	r28
     558:	1f 91       	pop	r17
     55a:	0f 91       	pop	r16
     55c:	ff 90       	pop	r15
     55e:	ef 90       	pop	r14
     560:	08 95       	ret

00000562 <KEYPAD_udtConvertStrToNum>:


Std_ReturnType KEYPAD_udtConvertStrToNum(unit8 * pu8Str,unit8 * pu32Value)
{
     562:	8f 92       	push	r8
     564:	9f 92       	push	r9
     566:	af 92       	push	r10
     568:	bf 92       	push	r11
     56a:	cf 92       	push	r12
     56c:	df 92       	push	r13
     56e:	ef 92       	push	r14
     570:	ff 92       	push	r15
     572:	0f 93       	push	r16
     574:	1f 93       	push	r17
     576:	fb 01       	movw	r30, r22
	Std_ReturnType udtReturnType=E_NOT_OK;
	if(pu8Str!='\0')
     578:	00 97       	sbiw	r24, 0x00	; 0
     57a:	21 f5       	brne	.+72     	; 0x5c4 <KEYPAD_udtConvertStrToNum+0x62>
     57c:	31 c0       	rjmp	.+98     	; 0x5e0 <KEYPAD_udtConvertStrToNum+0x7e>
		unit32 u8Result =0,u8i=0;
		
		while(pu8Str[u8i]!='\0')
		{
			
			u8Result=u8Result*10+(pu8Str[u8i]-'0');
     57e:	44 0f       	add	r20, r20
     580:	55 1f       	adc	r21, r21
     582:	66 1f       	adc	r22, r22
     584:	77 1f       	adc	r23, r23
     586:	4a 01       	movw	r8, r20
     588:	5b 01       	movw	r10, r22
     58a:	88 0c       	add	r8, r8
     58c:	99 1c       	adc	r9, r9
     58e:	aa 1c       	adc	r10, r10
     590:	bb 1c       	adc	r11, r11
     592:	88 0c       	add	r8, r8
     594:	99 1c       	adc	r9, r9
     596:	aa 1c       	adc	r10, r10
     598:	bb 1c       	adc	r11, r11
     59a:	48 0d       	add	r20, r8
     59c:	59 1d       	adc	r21, r9
     59e:	6a 1d       	adc	r22, r10
     5a0:	7b 1d       	adc	r23, r11
     5a2:	10 e0       	ldi	r17, 0x00	; 0
     5a4:	00 53       	subi	r16, 0x30	; 48
     5a6:	11 09       	sbc	r17, r1
     5a8:	01 2e       	mov	r0, r17
     5aa:	00 0c       	add	r0, r0
     5ac:	22 0b       	sbc	r18, r18
     5ae:	33 0b       	sbc	r19, r19
     5b0:	40 0f       	add	r20, r16
     5b2:	51 1f       	adc	r21, r17
     5b4:	62 1f       	adc	r22, r18
     5b6:	73 1f       	adc	r23, r19
			u8i++;
     5b8:	2f ef       	ldi	r18, 0xFF	; 255
     5ba:	c2 1a       	sub	r12, r18
     5bc:	d2 0a       	sbc	r13, r18
     5be:	e2 0a       	sbc	r14, r18
     5c0:	f2 0a       	sbc	r15, r18
     5c2:	06 c0       	rjmp	.+12     	; 0x5d0 <KEYPAD_udtConvertStrToNum+0x6e>
     5c4:	c1 2c       	mov	r12, r1
     5c6:	d1 2c       	mov	r13, r1
     5c8:	76 01       	movw	r14, r12
     5ca:	40 e0       	ldi	r20, 0x00	; 0
     5cc:	50 e0       	ldi	r21, 0x00	; 0
     5ce:	ba 01       	movw	r22, r20
	Std_ReturnType udtReturnType=E_NOT_OK;
	if(pu8Str!='\0')
	{
		unit32 u8Result =0,u8i=0;
		
		while(pu8Str[u8i]!='\0')
     5d0:	dc 01       	movw	r26, r24
     5d2:	ac 0d       	add	r26, r12
     5d4:	bd 1d       	adc	r27, r13
     5d6:	0c 91       	ld	r16, X
     5d8:	01 11       	cpse	r16, r1
     5da:	d1 cf       	rjmp	.-94     	; 0x57e <KEYPAD_udtConvertStrToNum+0x1c>
		{
			
			u8Result=u8Result*10+(pu8Str[u8i]-'0');
			u8i++;
		}
		* pu32Value=u8Result;
     5dc:	40 83       	st	Z, r20
	{
		return udtReturnType;
	}
	
	
     5de:	01 c0       	rjmp	.+2      	; 0x5e2 <KEYPAD_udtConvertStrToNum+0x80>
		* pu32Value=u8Result;
		udtReturnType=E_OK;
	}
	else
	{
		return udtReturnType;
     5e0:	81 e0       	ldi	r24, 0x01	; 1
	}
	
	
     5e2:	1f 91       	pop	r17
     5e4:	0f 91       	pop	r16
     5e6:	ff 90       	pop	r15
     5e8:	ef 90       	pop	r14
     5ea:	df 90       	pop	r13
     5ec:	cf 90       	pop	r12
     5ee:	bf 90       	pop	r11
     5f0:	af 90       	pop	r10
     5f2:	9f 90       	pop	r9
     5f4:	8f 90       	pop	r8
     5f6:	08 95       	ret

000005f8 <Send_instruction>:
Std_ReturnType LCD_udtShiftLeft(void)
{
	Std_ReturnType udtReturnType=E_NOT_OK;
	udtReturnType=Send_instruction(Shift_left);
	return udtReturnType;
}
     5f8:	1f 93       	push	r17
     5fa:	cf 93       	push	r28
     5fc:	df 93       	push	r29
     5fe:	1f 92       	push	r1
     600:	cd b7       	in	r28, 0x3d	; 61
     602:	de b7       	in	r29, 0x3e	; 62
     604:	18 2f       	mov	r17, r24
     606:	40 e0       	ldi	r20, 0x00	; 0
     608:	61 e0       	ldi	r22, 0x01	; 1
     60a:	81 e0       	ldi	r24, 0x01	; 1
     60c:	0e 94 bf 00 	call	0x17e	; 0x17e <DIO_udtSetPinValue>
     610:	40 e0       	ldi	r20, 0x00	; 0
     612:	62 e0       	ldi	r22, 0x02	; 2
     614:	81 e0       	ldi	r24, 0x01	; 1
     616:	0e 94 bf 00 	call	0x17e	; 0x17e <DIO_udtSetPinValue>
     61a:	41 e0       	ldi	r20, 0x01	; 1
     61c:	63 e0       	ldi	r22, 0x03	; 3
     61e:	81 e0       	ldi	r24, 0x01	; 1
     620:	0e 94 bf 00 	call	0x17e	; 0x17e <DIO_udtSetPinValue>
     624:	8f ec       	ldi	r24, 0xCF	; 207
     626:	97 e0       	ldi	r25, 0x07	; 7
     628:	01 97       	sbiw	r24, 0x01	; 1
     62a:	f1 f7       	brne	.-4      	; 0x628 <Send_instruction+0x30>
     62c:	00 c0       	rjmp	.+0      	; 0x62e <Send_instruction+0x36>
     62e:	00 00       	nop
     630:	19 82       	std	Y+1, r1	; 0x01
     632:	be 01       	movw	r22, r28
     634:	6f 5f       	subi	r22, 0xFF	; 255
     636:	7f 4f       	sbci	r23, 0xFF	; 255
     638:	80 e0       	ldi	r24, 0x00	; 0
     63a:	0e 94 8d 01 	call	0x31a	; 0x31a <DIO_udtGetPortValue>
     63e:	69 81       	ldd	r22, Y+1	; 0x01
     640:	6f 70       	andi	r22, 0x0F	; 15
     642:	81 2f       	mov	r24, r17
     644:	80 7f       	andi	r24, 0xF0	; 240
     646:	68 2b       	or	r22, r24
     648:	69 83       	std	Y+1, r22	; 0x01
     64a:	80 e0       	ldi	r24, 0x00	; 0
     64c:	0e 94 77 01 	call	0x2ee	; 0x2ee <DIO_udtSetPortValue>
     650:	ef ec       	ldi	r30, 0xCF	; 207
     652:	f7 e0       	ldi	r31, 0x07	; 7
     654:	31 97       	sbiw	r30, 0x01	; 1
     656:	f1 f7       	brne	.-4      	; 0x654 <Send_instruction+0x5c>
     658:	00 c0       	rjmp	.+0      	; 0x65a <Send_instruction+0x62>
     65a:	00 00       	nop
     65c:	40 e0       	ldi	r20, 0x00	; 0
     65e:	63 e0       	ldi	r22, 0x03	; 3
     660:	81 e0       	ldi	r24, 0x01	; 1
     662:	0e 94 bf 00 	call	0x17e	; 0x17e <DIO_udtSetPinValue>
     666:	8f ec       	ldi	r24, 0xCF	; 207
     668:	97 e0       	ldi	r25, 0x07	; 7
     66a:	01 97       	sbiw	r24, 0x01	; 1
     66c:	f1 f7       	brne	.-4      	; 0x66a <Send_instruction+0x72>
     66e:	00 c0       	rjmp	.+0      	; 0x670 <Send_instruction+0x78>
     670:	00 00       	nop
     672:	41 e0       	ldi	r20, 0x01	; 1
     674:	63 e0       	ldi	r22, 0x03	; 3
     676:	81 e0       	ldi	r24, 0x01	; 1
     678:	0e 94 bf 00 	call	0x17e	; 0x17e <DIO_udtSetPinValue>
     67c:	ef ec       	ldi	r30, 0xCF	; 207
     67e:	f7 e0       	ldi	r31, 0x07	; 7
     680:	31 97       	sbiw	r30, 0x01	; 1
     682:	f1 f7       	brne	.-4      	; 0x680 <Send_instruction+0x88>
     684:	00 c0       	rjmp	.+0      	; 0x686 <Send_instruction+0x8e>
     686:	00 00       	nop
     688:	be 01       	movw	r22, r28
     68a:	6f 5f       	subi	r22, 0xFF	; 255
     68c:	7f 4f       	sbci	r23, 0xFF	; 255
     68e:	80 e0       	ldi	r24, 0x00	; 0
     690:	0e 94 8d 01 	call	0x31a	; 0x31a <DIO_udtGetPortValue>
     694:	f0 e1       	ldi	r31, 0x10	; 16
     696:	1f 9f       	mul	r17, r31
     698:	c0 01       	movw	r24, r0
     69a:	11 24       	eor	r1, r1
     69c:	69 81       	ldd	r22, Y+1	; 0x01
     69e:	6f 70       	andi	r22, 0x0F	; 15
     6a0:	68 2b       	or	r22, r24
     6a2:	69 83       	std	Y+1, r22	; 0x01
     6a4:	80 e0       	ldi	r24, 0x00	; 0
     6a6:	0e 94 77 01 	call	0x2ee	; 0x2ee <DIO_udtSetPortValue>
     6aa:	89 83       	std	Y+1, r24	; 0x01
     6ac:	8f ec       	ldi	r24, 0xCF	; 207
     6ae:	97 e0       	ldi	r25, 0x07	; 7
     6b0:	01 97       	sbiw	r24, 0x01	; 1
     6b2:	f1 f7       	brne	.-4      	; 0x6b0 <Send_instruction+0xb8>
     6b4:	00 c0       	rjmp	.+0      	; 0x6b6 <Send_instruction+0xbe>
     6b6:	00 00       	nop
     6b8:	40 e0       	ldi	r20, 0x00	; 0
     6ba:	63 e0       	ldi	r22, 0x03	; 3
     6bc:	81 e0       	ldi	r24, 0x01	; 1
     6be:	0e 94 bf 00 	call	0x17e	; 0x17e <DIO_udtSetPinValue>
     6c2:	ef e9       	ldi	r30, 0x9F	; 159
     6c4:	ff e0       	ldi	r31, 0x0F	; 15
     6c6:	31 97       	sbiw	r30, 0x01	; 1
     6c8:	f1 f7       	brne	.-4      	; 0x6c6 <Send_instruction+0xce>
     6ca:	00 c0       	rjmp	.+0      	; 0x6cc <Send_instruction+0xd4>
     6cc:	00 00       	nop
     6ce:	0f 90       	pop	r0
     6d0:	df 91       	pop	r29
     6d2:	cf 91       	pop	r28
     6d4:	1f 91       	pop	r17
     6d6:	08 95       	ret

000006d8 <LCD_udtInitialized>:
     6d8:	41 e0       	ldi	r20, 0x01	; 1
     6da:	61 e0       	ldi	r22, 0x01	; 1
     6dc:	81 e0       	ldi	r24, 0x01	; 1
     6de:	0e 94 41 00 	call	0x82	; 0x82 <DIO_udtSetPinDirection>
     6e2:	41 e0       	ldi	r20, 0x01	; 1
     6e4:	62 e0       	ldi	r22, 0x02	; 2
     6e6:	81 e0       	ldi	r24, 0x01	; 1
     6e8:	0e 94 41 00 	call	0x82	; 0x82 <DIO_udtSetPinDirection>
     6ec:	41 e0       	ldi	r20, 0x01	; 1
     6ee:	63 e0       	ldi	r22, 0x03	; 3
     6f0:	81 e0       	ldi	r24, 0x01	; 1
     6f2:	0e 94 41 00 	call	0x82	; 0x82 <DIO_udtSetPinDirection>
     6f6:	41 e0       	ldi	r20, 0x01	; 1
     6f8:	64 e0       	ldi	r22, 0x04	; 4
     6fa:	80 e0       	ldi	r24, 0x00	; 0
     6fc:	0e 94 41 00 	call	0x82	; 0x82 <DIO_udtSetPinDirection>
     700:	41 e0       	ldi	r20, 0x01	; 1
     702:	65 e0       	ldi	r22, 0x05	; 5
     704:	80 e0       	ldi	r24, 0x00	; 0
     706:	0e 94 41 00 	call	0x82	; 0x82 <DIO_udtSetPinDirection>
     70a:	41 e0       	ldi	r20, 0x01	; 1
     70c:	66 e0       	ldi	r22, 0x06	; 6
     70e:	80 e0       	ldi	r24, 0x00	; 0
     710:	0e 94 41 00 	call	0x82	; 0x82 <DIO_udtSetPinDirection>
     714:	41 e0       	ldi	r20, 0x01	; 1
     716:	67 e0       	ldi	r22, 0x07	; 7
     718:	80 e0       	ldi	r24, 0x00	; 0
     71a:	0e 94 41 00 	call	0x82	; 0x82 <DIO_udtSetPinDirection>
     71e:	8f e2       	ldi	r24, 0x2F	; 47
     720:	95 e7       	ldi	r25, 0x75	; 117
     722:	01 97       	sbiw	r24, 0x01	; 1
     724:	f1 f7       	brne	.-4      	; 0x722 <LCD_udtInitialized+0x4a>
     726:	00 c0       	rjmp	.+0      	; 0x728 <LCD_udtInitialized+0x50>
     728:	00 00       	nop
     72a:	83 e3       	ldi	r24, 0x33	; 51
     72c:	0e 94 fc 02 	call	0x5f8	; 0x5f8 <Send_instruction>
     730:	82 e3       	ldi	r24, 0x32	; 50
     732:	0e 94 fc 02 	call	0x5f8	; 0x5f8 <Send_instruction>
     736:	88 e2       	ldi	r24, 0x28	; 40
     738:	0e 94 fc 02 	call	0x5f8	; 0x5f8 <Send_instruction>
     73c:	8c e0       	ldi	r24, 0x0C	; 12
     73e:	0e 94 fc 02 	call	0x5f8	; 0x5f8 <Send_instruction>
     742:	86 e0       	ldi	r24, 0x06	; 6
     744:	0e 94 fc 02 	call	0x5f8	; 0x5f8 <Send_instruction>
     748:	81 e0       	ldi	r24, 0x01	; 1
     74a:	0e 94 fc 02 	call	0x5f8	; 0x5f8 <Send_instruction>
     74e:	8f e9       	ldi	r24, 0x9F	; 159
     750:	9f e0       	ldi	r25, 0x0F	; 15
     752:	01 97       	sbiw	r24, 0x01	; 1
     754:	f1 f7       	brne	.-4      	; 0x752 <LCD_udtInitialized+0x7a>
     756:	00 c0       	rjmp	.+0      	; 0x758 <LCD_udtInitialized+0x80>
     758:	00 00       	nop
     75a:	81 e0       	ldi	r24, 0x01	; 1
     75c:	0e 94 fc 02 	call	0x5f8	; 0x5f8 <Send_instruction>
     760:	80 e8       	ldi	r24, 0x80	; 128
     762:	0e 94 fc 02 	call	0x5f8	; 0x5f8 <Send_instruction>
     766:	08 95       	ret

00000768 <LCD_udtSendData>:
     768:	1f 93       	push	r17
     76a:	cf 93       	push	r28
     76c:	df 93       	push	r29
     76e:	1f 92       	push	r1
     770:	cd b7       	in	r28, 0x3d	; 61
     772:	de b7       	in	r29, 0x3e	; 62
     774:	18 2f       	mov	r17, r24
     776:	41 e0       	ldi	r20, 0x01	; 1
     778:	61 e0       	ldi	r22, 0x01	; 1
     77a:	81 e0       	ldi	r24, 0x01	; 1
     77c:	0e 94 bf 00 	call	0x17e	; 0x17e <DIO_udtSetPinValue>
     780:	40 e0       	ldi	r20, 0x00	; 0
     782:	62 e0       	ldi	r22, 0x02	; 2
     784:	81 e0       	ldi	r24, 0x01	; 1
     786:	0e 94 bf 00 	call	0x17e	; 0x17e <DIO_udtSetPinValue>
     78a:	19 82       	std	Y+1, r1	; 0x01
     78c:	be 01       	movw	r22, r28
     78e:	6f 5f       	subi	r22, 0xFF	; 255
     790:	7f 4f       	sbci	r23, 0xFF	; 255
     792:	80 e0       	ldi	r24, 0x00	; 0
     794:	0e 94 8d 01 	call	0x31a	; 0x31a <DIO_udtGetPortValue>
     798:	69 81       	ldd	r22, Y+1	; 0x01
     79a:	6f 70       	andi	r22, 0x0F	; 15
     79c:	81 2f       	mov	r24, r17
     79e:	80 7f       	andi	r24, 0xF0	; 240
     7a0:	68 2b       	or	r22, r24
     7a2:	69 83       	std	Y+1, r22	; 0x01
     7a4:	80 e0       	ldi	r24, 0x00	; 0
     7a6:	0e 94 77 01 	call	0x2ee	; 0x2ee <DIO_udtSetPortValue>
     7aa:	41 e0       	ldi	r20, 0x01	; 1
     7ac:	63 e0       	ldi	r22, 0x03	; 3
     7ae:	81 e0       	ldi	r24, 0x01	; 1
     7b0:	0e 94 bf 00 	call	0x17e	; 0x17e <DIO_udtSetPinValue>
     7b4:	8f ec       	ldi	r24, 0xCF	; 207
     7b6:	97 e0       	ldi	r25, 0x07	; 7
     7b8:	01 97       	sbiw	r24, 0x01	; 1
     7ba:	f1 f7       	brne	.-4      	; 0x7b8 <LCD_udtSendData+0x50>
     7bc:	00 c0       	rjmp	.+0      	; 0x7be <LCD_udtSendData+0x56>
     7be:	00 00       	nop
     7c0:	40 e0       	ldi	r20, 0x00	; 0
     7c2:	63 e0       	ldi	r22, 0x03	; 3
     7c4:	81 e0       	ldi	r24, 0x01	; 1
     7c6:	0e 94 bf 00 	call	0x17e	; 0x17e <DIO_udtSetPinValue>
     7ca:	be 01       	movw	r22, r28
     7cc:	6f 5f       	subi	r22, 0xFF	; 255
     7ce:	7f 4f       	sbci	r23, 0xFF	; 255
     7d0:	80 e0       	ldi	r24, 0x00	; 0
     7d2:	0e 94 8d 01 	call	0x31a	; 0x31a <DIO_udtGetPortValue>
     7d6:	e0 e1       	ldi	r30, 0x10	; 16
     7d8:	1e 9f       	mul	r17, r30
     7da:	c0 01       	movw	r24, r0
     7dc:	11 24       	eor	r1, r1
     7de:	69 81       	ldd	r22, Y+1	; 0x01
     7e0:	6f 70       	andi	r22, 0x0F	; 15
     7e2:	68 2b       	or	r22, r24
     7e4:	69 83       	std	Y+1, r22	; 0x01
     7e6:	80 e0       	ldi	r24, 0x00	; 0
     7e8:	0e 94 77 01 	call	0x2ee	; 0x2ee <DIO_udtSetPortValue>
     7ec:	41 e0       	ldi	r20, 0x01	; 1
     7ee:	63 e0       	ldi	r22, 0x03	; 3
     7f0:	81 e0       	ldi	r24, 0x01	; 1
     7f2:	0e 94 bf 00 	call	0x17e	; 0x17e <DIO_udtSetPinValue>
     7f6:	8f ec       	ldi	r24, 0xCF	; 207
     7f8:	97 e0       	ldi	r25, 0x07	; 7
     7fa:	01 97       	sbiw	r24, 0x01	; 1
     7fc:	f1 f7       	brne	.-4      	; 0x7fa <LCD_udtSendData+0x92>
     7fe:	00 c0       	rjmp	.+0      	; 0x800 <__DATA_REGION_LENGTH__>
     800:	00 00       	nop
     802:	40 e0       	ldi	r20, 0x00	; 0
     804:	63 e0       	ldi	r22, 0x03	; 3
     806:	81 e0       	ldi	r24, 0x01	; 1
     808:	0e 94 bf 00 	call	0x17e	; 0x17e <DIO_udtSetPinValue>
     80c:	ef e9       	ldi	r30, 0x9F	; 159
     80e:	ff e0       	ldi	r31, 0x0F	; 15
     810:	31 97       	sbiw	r30, 0x01	; 1
     812:	f1 f7       	brne	.-4      	; 0x810 <__DATA_REGION_LENGTH__+0x10>
     814:	00 c0       	rjmp	.+0      	; 0x816 <__DATA_REGION_LENGTH__+0x16>
     816:	00 00       	nop
     818:	0f 90       	pop	r0
     81a:	df 91       	pop	r29
     81c:	cf 91       	pop	r28
     81e:	1f 91       	pop	r17
     820:	08 95       	ret

00000822 <LCD_udtClear>:
     822:	81 e0       	ldi	r24, 0x01	; 1
     824:	0e 94 fc 02 	call	0x5f8	; 0x5f8 <Send_instruction>
     828:	08 95       	ret

0000082a <LCD_udtGoTo>:
     82a:	cf 93       	push	r28
     82c:	df 93       	push	r29
     82e:	00 d0       	rcall	.+0      	; 0x830 <LCD_udtGoTo+0x6>
     830:	cd b7       	in	r28, 0x3d	; 61
     832:	de b7       	in	r29, 0x3e	; 62
     834:	19 82       	std	Y+1, r1	; 0x01
     836:	90 e4       	ldi	r25, 0x40	; 64
     838:	9a 83       	std	Y+2, r25	; 0x02
     83a:	e1 e0       	ldi	r30, 0x01	; 1
     83c:	f0 e0       	ldi	r31, 0x00	; 0
     83e:	ec 0f       	add	r30, r28
     840:	fd 1f       	adc	r31, r29
     842:	e8 0f       	add	r30, r24
     844:	f1 1d       	adc	r31, r1
     846:	80 81       	ld	r24, Z
     848:	86 0f       	add	r24, r22
     84a:	80 68       	ori	r24, 0x80	; 128
     84c:	0e 94 fc 02 	call	0x5f8	; 0x5f8 <Send_instruction>
     850:	0f 90       	pop	r0
     852:	0f 90       	pop	r0
     854:	df 91       	pop	r29
     856:	cf 91       	pop	r28
     858:	08 95       	ret

0000085a <LCD_udtPrintString>:
     85a:	0f 93       	push	r16
     85c:	1f 93       	push	r17
     85e:	cf 93       	push	r28
     860:	8c 01       	movw	r16, r24
     862:	c0 e0       	ldi	r28, 0x00	; 0
     864:	81 e0       	ldi	r24, 0x01	; 1
     866:	04 c0       	rjmp	.+8      	; 0x870 <__stack+0x11>
     868:	89 2f       	mov	r24, r25
     86a:	0e 94 b4 03 	call	0x768	; 0x768 <LCD_udtSendData>
     86e:	cf 5f       	subi	r28, 0xFF	; 255
     870:	f8 01       	movw	r30, r16
     872:	ec 0f       	add	r30, r28
     874:	f1 1d       	adc	r31, r1
     876:	90 81       	ld	r25, Z
     878:	91 11       	cpse	r25, r1
     87a:	f6 cf       	rjmp	.-20     	; 0x868 <__stack+0x9>
     87c:	cf 91       	pop	r28
     87e:	1f 91       	pop	r17
     880:	0f 91       	pop	r16
     882:	08 95       	ret

00000884 <LCD_udtPrintStringAtXY>:


Std_ReturnType LCD_udtPrintStringAtXY(unit8 *u8str,unit8 u8X, unit8 u8Y)
{
     884:	ef 92       	push	r14
     886:	ff 92       	push	r15
     888:	0f 93       	push	r16
     88a:	1f 93       	push	r17
     88c:	cf 93       	push	r28
     88e:	df 93       	push	r29
     890:	ec 01       	movw	r28, r24
     892:	06 2f       	mov	r16, r22
     894:	f4 2e       	mov	r15, r20
	Std_ReturnType udtReturnType=E_NOT_OK;

	LCD_udtGoTo(u8X,u8Y);
     896:	64 2f       	mov	r22, r20
     898:	80 2f       	mov	r24, r16
     89a:	0e 94 15 04 	call	0x82a	; 0x82a <LCD_udtGoTo>
	unit8 * ptr=u8str;
	unit8 index =0,line=0;
     89e:	e1 2c       	mov	r14, r1
     8a0:	10 e0       	ldi	r17, 0x00	; 0
}


Std_ReturnType LCD_udtPrintStringAtXY(unit8 *u8str,unit8 u8X, unit8 u8Y)
{
	Std_ReturnType udtReturnType=E_NOT_OK;
     8a2:	81 e0       	ldi	r24, 0x01	; 1

	LCD_udtGoTo(u8X,u8Y);
	unit8 * ptr=u8str;
	unit8 index =0,line=0;
	while(((*ptr)!='\0')&&((16*u8X)+(index+u8Y))<32)
     8a4:	1f c0       	rjmp	.+62     	; 0x8e4 <LCD_udtPrintStringAtXY+0x60>
	{
		if(((16*u8X)+(index+u8Y))<16)
     8a6:	20 31       	cpi	r18, 0x10	; 16
     8a8:	31 05       	cpc	r19, r1
     8aa:	34 f4       	brge	.+12     	; 0x8b8 <LCD_udtPrintStringAtXY+0x34>
		{

			udtReturnType=LCD_udtSendData(*ptr);
     8ac:	89 2f       	mov	r24, r25
     8ae:	0e 94 b4 03 	call	0x768	; 0x768 <LCD_udtSendData>
			index++;
     8b2:	1f 5f       	subi	r17, 0xFF	; 255
			ptr++;
     8b4:	21 96       	adiw	r28, 0x01	; 1
     8b6:	16 c0       	rjmp	.+44     	; 0x8e4 <LCD_udtPrintStringAtXY+0x60>
		}
		else if ((((16*u8X)+(index+u8Y))==16)&&line==0)
     8b8:	20 31       	cpi	r18, 0x10	; 16
     8ba:	31 05       	cpc	r19, r1
     8bc:	41 f4       	brne	.+16     	; 0x8ce <LCD_udtPrintStringAtXY+0x4a>
     8be:	e1 10       	cpse	r14, r1
     8c0:	06 c0       	rjmp	.+12     	; 0x8ce <LCD_udtPrintStringAtXY+0x4a>
		{

			udtReturnType=LCD_udtGoTo(1,0);
     8c2:	60 e0       	ldi	r22, 0x00	; 0
     8c4:	81 e0       	ldi	r24, 0x01	; 1
     8c6:	0e 94 15 04 	call	0x82a	; 0x82a <LCD_udtGoTo>
			line++;
     8ca:	e3 94       	inc	r14
     8cc:	0b c0       	rjmp	.+22     	; 0x8e4 <LCD_udtPrintStringAtXY+0x60>
		}
		else if (((16*u8X)+(index+u8Y))<32&&line==1)
     8ce:	20 32       	cpi	r18, 0x20	; 32
     8d0:	31 05       	cpc	r19, r1
     8d2:	44 f4       	brge	.+16     	; 0x8e4 <LCD_udtPrintStringAtXY+0x60>
     8d4:	21 e0       	ldi	r18, 0x01	; 1
     8d6:	e2 12       	cpse	r14, r18
     8d8:	05 c0       	rjmp	.+10     	; 0x8e4 <LCD_udtPrintStringAtXY+0x60>
		{
			udtReturnType=LCD_udtSendData(*ptr);
     8da:	89 2f       	mov	r24, r25
     8dc:	0e 94 b4 03 	call	0x768	; 0x768 <LCD_udtSendData>
			index++;
     8e0:	1f 5f       	subi	r17, 0xFF	; 255
			ptr++;
     8e2:	21 96       	adiw	r28, 0x01	; 1
	Std_ReturnType udtReturnType=E_NOT_OK;

	LCD_udtGoTo(u8X,u8Y);
	unit8 * ptr=u8str;
	unit8 index =0,line=0;
	while(((*ptr)!='\0')&&((16*u8X)+(index+u8Y))<32)
     8e4:	98 81       	ld	r25, Y
     8e6:	99 23       	and	r25, r25
     8e8:	61 f0       	breq	.+24     	; 0x902 <LCD_udtPrintStringAtXY+0x7e>
     8ea:	2f 2d       	mov	r18, r15
     8ec:	30 e0       	ldi	r19, 0x00	; 0
     8ee:	21 0f       	add	r18, r17
     8f0:	31 1d       	adc	r19, r1
     8f2:	40 e1       	ldi	r20, 0x10	; 16
     8f4:	04 9f       	mul	r16, r20
     8f6:	20 0d       	add	r18, r0
     8f8:	31 1d       	adc	r19, r1
     8fa:	11 24       	eor	r1, r1
     8fc:	20 32       	cpi	r18, 0x20	; 32
     8fe:	31 05       	cpc	r19, r1
     900:	94 f2       	brlt	.-92     	; 0x8a6 <LCD_udtPrintStringAtXY+0x22>
		}

	}

	return udtReturnType;
}
     902:	df 91       	pop	r29
     904:	cf 91       	pop	r28
     906:	1f 91       	pop	r17
     908:	0f 91       	pop	r16
     90a:	ff 90       	pop	r15
     90c:	ef 90       	pop	r14
     90e:	08 95       	ret

00000910 <LCD_udtAddSpecialChar>:


Std_ReturnType LCD_udtAddSpecialChar(unit8 *u8str, unit8 u8CGRAM_index)
{
     910:	0f 93       	push	r16
     912:	1f 93       	push	r17
     914:	cf 93       	push	r28
	Std_ReturnType udtReturnType=E_NOT_OK;
	unit8 u8address =0;


	if(u8CGRAM_index<8)
     916:	68 30       	cpi	r22, 0x08	; 8
     918:	b8 f4       	brcc	.+46     	; 0x948 <LCD_udtAddSpecialChar+0x38>
     91a:	8c 01       	movw	r16, r24
	{
		u8address=u8CGRAM_index*8;
     91c:	86 2f       	mov	r24, r22
     91e:	88 0f       	add	r24, r24
     920:	88 0f       	add	r24, r24
     922:	88 0f       	add	r24, r24
		/*0-1-D5-D4-D3-D2-D1-D0 TO GO TO CGRAM D5-D0 LOCATION 0-7*/
		SET_BIT(u8address,6);
		udtReturnType=Send_instruction(u8address);
     924:	80 64       	ori	r24, 0x40	; 64
     926:	0e 94 fc 02 	call	0x5f8	; 0x5f8 <Send_instruction>
		unit8 u8i;
		for(u8i=0;u8i<8;u8i++)
     92a:	c0 e0       	ldi	r28, 0x00	; 0
     92c:	07 c0       	rjmp	.+14     	; 0x93c <LCD_udtAddSpecialChar+0x2c>
		{
			udtReturnType=LCD_udtSendData(u8str[u8i]);
     92e:	f8 01       	movw	r30, r16
     930:	ec 0f       	add	r30, r28
     932:	f1 1d       	adc	r31, r1
     934:	80 81       	ld	r24, Z
     936:	0e 94 b4 03 	call	0x768	; 0x768 <LCD_udtSendData>
		u8address=u8CGRAM_index*8;
		/*0-1-D5-D4-D3-D2-D1-D0 TO GO TO CGRAM D5-D0 LOCATION 0-7*/
		SET_BIT(u8address,6);
		udtReturnType=Send_instruction(u8address);
		unit8 u8i;
		for(u8i=0;u8i<8;u8i++)
     93a:	cf 5f       	subi	r28, 0xFF	; 255
     93c:	c8 30       	cpi	r28, 0x08	; 8
     93e:	b8 f3       	brcs	.-18     	; 0x92e <LCD_udtAddSpecialChar+0x1e>
		{
			udtReturnType=LCD_udtSendData(u8str[u8i]);
		}
		udtReturnType=Send_instruction(Return_Home);
     940:	82 e0       	ldi	r24, 0x02	; 2
     942:	0e 94 fc 02 	call	0x5f8	; 0x5f8 <Send_instruction>
     946:	01 c0       	rjmp	.+2      	; 0x94a <LCD_udtAddSpecialChar+0x3a>
	}
	else
	{

		udtReturnType=E_NOT_OK;
     948:	81 e0       	ldi	r24, 0x01	; 1

	}


	return udtReturnType;
}
     94a:	cf 91       	pop	r28
     94c:	1f 91       	pop	r17
     94e:	0f 91       	pop	r16
     950:	08 95       	ret

00000952 <LCD_udtPrintSpecialChar>:
Std_ReturnType LCD_udtPrintSpecialChar(unit8 u8CGRAM_index,unit8 u8X, unit8 u8Y)
{
     952:	cf 93       	push	r28
	Std_ReturnType udtReturnType=E_NOT_OK;
	if(u8CGRAM_index<8)
     954:	88 30       	cpi	r24, 0x08	; 8
     956:	50 f4       	brcc	.+20     	; 0x96c <LCD_udtPrintSpecialChar+0x1a>
     958:	96 2f       	mov	r25, r22
     95a:	c8 2f       	mov	r28, r24
	{
		udtReturnType=LCD_udtGoTo(u8X,u8Y);
     95c:	64 2f       	mov	r22, r20
     95e:	89 2f       	mov	r24, r25
     960:	0e 94 15 04 	call	0x82a	; 0x82a <LCD_udtGoTo>
		udtReturnType=LCD_udtSendData(u8CGRAM_index);
     964:	8c 2f       	mov	r24, r28
     966:	0e 94 b4 03 	call	0x768	; 0x768 <LCD_udtSendData>
     96a:	01 c0       	rjmp	.+2      	; 0x96e <LCD_udtPrintSpecialChar+0x1c>
	}
	else
	{

		udtReturnType=E_NOT_OK;
     96c:	81 e0       	ldi	r24, 0x01	; 1
	}
	return udtReturnType;
}
     96e:	cf 91       	pop	r28
     970:	08 95       	ret

00000972 <LCD_DisplayNumber>:


Std_ReturnType LCD_DisplayNumber(f64 data,NumberBase Base)
{
     972:	0f 93       	push	r16
     974:	1f 93       	push	r17
     976:	cf 93       	push	r28
     978:	df 93       	push	r29
     97a:	cd b7       	in	r28, 0x3d	; 61
     97c:	de b7       	in	r29, 0x3e	; 62
     97e:	65 97       	sbiw	r28, 0x15	; 21
     980:	0f b6       	in	r0, 0x3f	; 63
     982:	f8 94       	cli
     984:	de bf       	out	0x3e, r29	; 62
     986:	0f be       	out	0x3f, r0	; 63
     988:	cd bf       	out	0x3d, r28	; 61
	
	/* String to hold the ascii result */
	char Result[21];
	/* 10 for decimal */
	itoa((int)data,Result,Base);
     98a:	04 2f       	mov	r16, r20
     98c:	10 e0       	ldi	r17, 0x00	; 0
     98e:	0e 94 7c 08 	call	0x10f8	; 0x10f8 <__fixsfsi>
     992:	dc 01       	movw	r26, r24
     994:	cb 01       	movw	r24, r22
     996:	a8 01       	movw	r20, r16
     998:	be 01       	movw	r22, r28
     99a:	6f 5f       	subi	r22, 0xFF	; 255
     99c:	7f 4f       	sbci	r23, 0xFF	; 255
     99e:	0e 94 24 09 	call	0x1248	; 0x1248 <itoa>
	/* Display The Result */
	LCD_udtPrintString(Result);
     9a2:	ce 01       	movw	r24, r28
     9a4:	01 96       	adiw	r24, 0x01	; 1
     9a6:	0e 94 2d 04 	call	0x85a	; 0x85a <LCD_udtPrintString>
	
     9aa:	65 96       	adiw	r28, 0x15	; 21
     9ac:	0f b6       	in	r0, 0x3f	; 63
     9ae:	f8 94       	cli
     9b0:	de bf       	out	0x3e, r29	; 62
     9b2:	0f be       	out	0x3f, r0	; 63
     9b4:	cd bf       	out	0x3d, r28	; 61
     9b6:	df 91       	pop	r29
     9b8:	cf 91       	pop	r28
     9ba:	1f 91       	pop	r17
     9bc:	0f 91       	pop	r16
     9be:	08 95       	ret

000009c0 <main>:
unit8 Home_J[8]={0x02,0x02,0x02,0x12,0x12,0x12,0x12,0x1F};
unit8 Home_K[8]={0x02,0x02,0x02,0x02,0x02,0x02,0x02,0x1E};
	
	
int main(void)
{
     9c0:	cf 93       	push	r28
     9c2:	df 93       	push	r29
     9c4:	cd b7       	in	r28, 0x3d	; 61
     9c6:	de b7       	in	r29, 0x3e	; 62
     9c8:	ad 97       	sbiw	r28, 0x2d	; 45
     9ca:	0f b6       	in	r0, 0x3f	; 63
     9cc:	f8 94       	cli
     9ce:	de bf       	out	0x3e, r29	; 62
     9d0:	0f be       	out	0x3f, r0	; 63
     9d2:	cd bf       	out	0x3d, r28	; 61
	unit8 arrow_pos=0,PB1_Value=1,PB2_Value=0;
     9d4:	81 e0       	ldi	r24, 0x01	; 1
     9d6:	89 83       	std	Y+1, r24	; 0x01
     9d8:	1a 82       	std	Y+2, r1	; 0x02
    LCD_udtInitialized();//LCD initialization
     9da:	0e 94 6c 03 	call	0x6d8	; 0x6d8 <LCD_udtInitialized>
	KEYPAD_udtInit();
     9de:	0e 94 ab 01 	call	0x356	; 0x356 <KEYPAD_udtInit>
	DIO_udtSetPinDirection(DIO_PORTB,DIO_PIN0,DIO_INPUT);
     9e2:	40 e0       	ldi	r20, 0x00	; 0
     9e4:	60 e0       	ldi	r22, 0x00	; 0
     9e6:	81 e0       	ldi	r24, 0x01	; 1
     9e8:	0e 94 41 00 	call	0x82	; 0x82 <DIO_udtSetPinDirection>
	DIO_udtSetPinDirection(DIO_PORTD,DIO_PIN2,DIO_INPUT);
     9ec:	40 e0       	ldi	r20, 0x00	; 0
     9ee:	62 e0       	ldi	r22, 0x02	; 2
     9f0:	83 e0       	ldi	r24, 0x03	; 3
     9f2:	0e 94 41 00 	call	0x82	; 0x82 <DIO_udtSetPinDirection>
	#else
		//round up by default
		__ticks_dc = (uint32_t)(ceil(fabs(__tmp)));
	#endif

	__builtin_avr_delay_cycles(__ticks_dc);
     9f6:	2f ef       	ldi	r18, 0xFF	; 255
     9f8:	84 e3       	ldi	r24, 0x34	; 52
     9fa:	9c e0       	ldi	r25, 0x0C	; 12
     9fc:	21 50       	subi	r18, 0x01	; 1
     9fe:	80 40       	sbci	r24, 0x00	; 0
     a00:	90 40       	sbci	r25, 0x00	; 0
     a02:	e1 f7       	brne	.-8      	; 0x9fc <main+0x3c>
     a04:	00 c0       	rjmp	.+0      	; 0xa06 <main+0x46>
     a06:	00 00       	nop
	_delay_ms(250);
	LCD_udtAddSpecialChar(arrow, 0);
     a08:	60 e0       	ldi	r22, 0x00	; 0
     a0a:	80 ed       	ldi	r24, 0xD0	; 208
     a0c:	90 e0       	ldi	r25, 0x00	; 0
     a0e:	0e 94 88 04 	call	0x910	; 0x910 <LCD_udtAddSpecialChar>
	LCD_udtPrintSpecialChar(0,0,0);
     a12:	40 e0       	ldi	r20, 0x00	; 0
     a14:	60 e0       	ldi	r22, 0x00	; 0
     a16:	80 e0       	ldi	r24, 0x00	; 0
     a18:	0e 94 a9 04 	call	0x952	; 0x952 <LCD_udtPrintSpecialChar>
unit8 Home_K[8]={0x02,0x02,0x02,0x02,0x02,0x02,0x02,0x1E};
	
	
int main(void)
{
	unit8 arrow_pos=0,PB1_Value=1,PB2_Value=0;
     a1c:	e1 2c       	mov	r14, r1
     a1e:	af ef       	ldi	r26, 0xFF	; 255
     a20:	b0 e7       	ldi	r27, 0x70	; 112
     a22:	22 e0       	ldi	r18, 0x02	; 2
     a24:	a1 50       	subi	r26, 0x01	; 1
     a26:	b0 40       	sbci	r27, 0x00	; 0
     a28:	20 40       	sbci	r18, 0x00	; 0
     a2a:	e1 f7       	brne	.-8      	; 0xa24 <main+0x64>
     a2c:	00 c0       	rjmp	.+0      	; 0xa2e <main+0x6e>
     a2e:	00 00       	nop
	LCD_udtPrintSpecialChar(0,0,0);
	
    while (1) 
    {
		_delay_ms(50);
		DIO_udtGetPinValue(DIO_PORTB,DIO_PIN0,&PB1_Value);
     a30:	ae 01       	movw	r20, r28
     a32:	4f 5f       	subi	r20, 0xFF	; 255
     a34:	5f 4f       	sbci	r21, 0xFF	; 255
     a36:	60 e0       	ldi	r22, 0x00	; 0
     a38:	81 e0       	ldi	r24, 0x01	; 1
     a3a:	0e 94 3d 01 	call	0x27a	; 0x27a <DIO_udtGetPinValue>
		LCD_udtGoTo(0, 2);
     a3e:	62 e0       	ldi	r22, 0x02	; 2
     a40:	80 e0       	ldi	r24, 0x00	; 0
     a42:	0e 94 15 04 	call	0x82a	; 0x82a <LCD_udtGoTo>
		LCD_udtPrintString("Animation");
     a46:	88 ee       	ldi	r24, 0xE8	; 232
     a48:	90 e0       	ldi	r25, 0x00	; 0
     a4a:	0e 94 2d 04 	call	0x85a	; 0x85a <LCD_udtPrintString>
		LCD_udtGoTo(1, 2);
     a4e:	62 e0       	ldi	r22, 0x02	; 2
     a50:	81 e0       	ldi	r24, 0x01	; 1
     a52:	0e 94 15 04 	call	0x82a	; 0x82a <LCD_udtGoTo>
		LCD_udtPrintString("Calculator");
     a56:	82 ef       	ldi	r24, 0xF2	; 242
     a58:	90 e0       	ldi	r25, 0x00	; 0
     a5a:	0e 94 2d 04 	call	0x85a	; 0x85a <LCD_udtPrintString>
		
		if(1==arrow_pos&&1==PB1_Value)
     a5e:	81 e0       	ldi	r24, 0x01	; 1
     a60:	e8 12       	cpse	r14, r24
     a62:	10 c0       	rjmp	.+32     	; 0xa84 <main+0xc4>
     a64:	89 81       	ldd	r24, Y+1	; 0x01
     a66:	81 30       	cpi	r24, 0x01	; 1
     a68:	69 f4       	brne	.+26     	; 0xa84 <main+0xc4>
		{
			LCD_udtGoTo(1, 0);
     a6a:	60 e0       	ldi	r22, 0x00	; 0
     a6c:	0e 94 15 04 	call	0x82a	; 0x82a <LCD_udtGoTo>
			LCD_udtSendData (' ');
     a70:	80 e2       	ldi	r24, 0x20	; 32
     a72:	0e 94 b4 03 	call	0x768	; 0x768 <LCD_udtSendData>
			LCD_udtPrintSpecialChar(0,0,0);
     a76:	40 e0       	ldi	r20, 0x00	; 0
     a78:	60 e0       	ldi	r22, 0x00	; 0
     a7a:	80 e0       	ldi	r24, 0x00	; 0
     a7c:	0e 94 a9 04 	call	0x952	; 0x952 <LCD_udtPrintSpecialChar>
			arrow_pos=0;
     a80:	e1 2c       	mov	r14, r1
     a82:	29 c3       	rjmp	.+1618   	; 0x10d6 <main+0x716>
		}
		else if(0==arrow_pos&&1==PB1_Value)
     a84:	e1 10       	cpse	r14, r1
     a86:	12 c0       	rjmp	.+36     	; 0xaac <main+0xec>
     a88:	89 81       	ldd	r24, Y+1	; 0x01
     a8a:	81 30       	cpi	r24, 0x01	; 1
     a8c:	79 f4       	brne	.+30     	; 0xaac <main+0xec>
		{
			LCD_udtGoTo(0, 0);
     a8e:	60 e0       	ldi	r22, 0x00	; 0
     a90:	80 e0       	ldi	r24, 0x00	; 0
     a92:	0e 94 15 04 	call	0x82a	; 0x82a <LCD_udtGoTo>
			LCD_udtSendData (' ');
     a96:	80 e2       	ldi	r24, 0x20	; 32
     a98:	0e 94 b4 03 	call	0x768	; 0x768 <LCD_udtSendData>
			LCD_udtPrintSpecialChar(0,1,0);
     a9c:	40 e0       	ldi	r20, 0x00	; 0
     a9e:	61 e0       	ldi	r22, 0x01	; 1
     aa0:	80 e0       	ldi	r24, 0x00	; 0
     aa2:	0e 94 a9 04 	call	0x952	; 0x952 <LCD_udtPrintSpecialChar>
			arrow_pos=1;
     aa6:	ee 24       	eor	r14, r14
     aa8:	e3 94       	inc	r14
     aaa:	15 c3       	rjmp	.+1578   	; 0x10d6 <main+0x716>
		}
		else
		{
			if(0==arrow_pos&&1==PB2_Value)
     aac:	e1 10       	cpse	r14, r1
     aae:	f1 c1       	rjmp	.+994    	; 0xe92 <main+0x4d2>
     ab0:	8a 81       	ldd	r24, Y+2	; 0x02
     ab2:	81 30       	cpi	r24, 0x01	; 1
     ab4:	09 f0       	breq	.+2      	; 0xab8 <main+0xf8>
     ab6:	ed c1       	rjmp	.+986    	; 0xe92 <main+0x4d2>
			{
				LCD_udtClear();
     ab8:	0e 94 11 04 	call	0x822	; 0x822 <LCD_udtClear>
				LCD_udtPrintStringAtXY ("Hi Samir, HYD ? My Name is AMIT ",0,0);
     abc:	40 e0       	ldi	r20, 0x00	; 0
     abe:	60 e0       	ldi	r22, 0x00	; 0
     ac0:	8d ef       	ldi	r24, 0xFD	; 253
     ac2:	90 e0       	ldi	r25, 0x00	; 0
     ac4:	0e 94 42 04 	call	0x884	; 0x884 <LCD_udtPrintStringAtXY>
     ac8:	9f ef       	ldi	r25, 0xFF	; 255
     aca:	a3 e2       	ldi	r26, 0x23	; 35
     acc:	b4 ef       	ldi	r27, 0xF4	; 244
     ace:	91 50       	subi	r25, 0x01	; 1
     ad0:	a0 40       	sbci	r26, 0x00	; 0
     ad2:	b0 40       	sbci	r27, 0x00	; 0
     ad4:	e1 f7       	brne	.-8      	; 0xace <main+0x10e>
     ad6:	00 c0       	rjmp	.+0      	; 0xad8 <main+0x118>
     ad8:	00 00       	nop
				_delay_ms(5000);
				LCD_udtClear();
     ada:	0e 94 11 04 	call	0x822	; 0x822 <LCD_udtClear>
				LCD_udtAddSpecialChar(PERSON_1_POS, 0);
     ade:	60 e0       	ldi	r22, 0x00	; 0
     ae0:	88 ec       	ldi	r24, 0xC8	; 200
     ae2:	90 e0       	ldi	r25, 0x00	; 0
     ae4:	0e 94 88 04 	call	0x910	; 0x910 <LCD_udtAddSpecialChar>
				LCD_udtAddSpecialChar(PERSON_1_POS, 0);
     ae8:	60 e0       	ldi	r22, 0x00	; 0
     aea:	88 ec       	ldi	r24, 0xC8	; 200
     aec:	90 e0       	ldi	r25, 0x00	; 0
     aee:	0e 94 88 04 	call	0x910	; 0x910 <LCD_udtAddSpecialChar>
				LCD_udtAddSpecialChar(PERSON_2_POS, 1);
     af2:	61 e0       	ldi	r22, 0x01	; 1
     af4:	80 ec       	ldi	r24, 0xC0	; 192
     af6:	90 e0       	ldi	r25, 0x00	; 0
     af8:	0e 94 88 04 	call	0x910	; 0x910 <LCD_udtAddSpecialChar>
				LCD_udtAddSpecialChar(ball_1_POS, 2);
     afc:	62 e0       	ldi	r22, 0x02	; 2
     afe:	80 eb       	ldi	r24, 0xB0	; 176
     b00:	90 e0       	ldi	r25, 0x00	; 0
     b02:	0e 94 88 04 	call	0x910	; 0x910 <LCD_udtAddSpecialChar>
				LCD_udtClear();
     b06:	0e 94 11 04 	call	0x822	; 0x822 <LCD_udtClear>
				LCD_udtGoTo(0, 0);
     b0a:	60 e0       	ldi	r22, 0x00	; 0
     b0c:	80 e0       	ldi	r24, 0x00	; 0
     b0e:	0e 94 15 04 	call	0x82a	; 0x82a <LCD_udtGoTo>
				LCD_udtSendData (' ');
     b12:	80 e2       	ldi	r24, 0x20	; 32
     b14:	0e 94 b4 03 	call	0x768	; 0x768 <LCD_udtSendData>
				while(1)
				{
					LCD_udtGoTo(0, 0);
     b18:	60 e0       	ldi	r22, 0x00	; 0
     b1a:	80 e0       	ldi	r24, 0x00	; 0
     b1c:	0e 94 15 04 	call	0x82a	; 0x82a <LCD_udtGoTo>
					LCD_udtPrintString("I can run ");
     b20:	8e e1       	ldi	r24, 0x1E	; 30
     b22:	91 e0       	ldi	r25, 0x01	; 1
     b24:	0e 94 2d 04 	call	0x85a	; 0x85a <LCD_udtPrintString>
					unit8 L_u8i=0;
					for(L_u8i=0;L_u8i<16;L_u8i++)
     b28:	10 e0       	ldi	r17, 0x00	; 0
     b2a:	26 c0       	rjmp	.+76     	; 0xb78 <main+0x1b8>
					{
						LCD_udtPrintSpecialChar(0,1,L_u8i);
     b2c:	41 2f       	mov	r20, r17
     b2e:	61 e0       	ldi	r22, 0x01	; 1
     b30:	80 e0       	ldi	r24, 0x00	; 0
     b32:	0e 94 a9 04 	call	0x952	; 0x952 <LCD_udtPrintSpecialChar>
     b36:	2f ef       	ldi	r18, 0xFF	; 255
     b38:	83 ec       	ldi	r24, 0xC3	; 195
     b3a:	99 e0       	ldi	r25, 0x09	; 9
     b3c:	21 50       	subi	r18, 0x01	; 1
     b3e:	80 40       	sbci	r24, 0x00	; 0
     b40:	90 40       	sbci	r25, 0x00	; 0
     b42:	e1 f7       	brne	.-8      	; 0xb3c <main+0x17c>
     b44:	00 c0       	rjmp	.+0      	; 0xb46 <main+0x186>
     b46:	00 00       	nop
						_delay_ms(200);
						LCD_udtPrintSpecialChar(1,1,L_u8i);
     b48:	41 2f       	mov	r20, r17
     b4a:	61 e0       	ldi	r22, 0x01	; 1
     b4c:	81 e0       	ldi	r24, 0x01	; 1
     b4e:	0e 94 a9 04 	call	0x952	; 0x952 <LCD_udtPrintSpecialChar>
     b52:	af ef       	ldi	r26, 0xFF	; 255
     b54:	b1 ee       	ldi	r27, 0xE1	; 225
     b56:	24 e0       	ldi	r18, 0x04	; 4
     b58:	a1 50       	subi	r26, 0x01	; 1
     b5a:	b0 40       	sbci	r27, 0x00	; 0
     b5c:	20 40       	sbci	r18, 0x00	; 0
     b5e:	e1 f7       	brne	.-8      	; 0xb58 <main+0x198>
     b60:	00 c0       	rjmp	.+0      	; 0xb62 <main+0x1a2>
     b62:	00 00       	nop
						_delay_ms(100);
						if(L_u8i==15)
     b64:	1f 30       	cpi	r17, 0x0F	; 15
     b66:	39 f0       	breq	.+14     	; 0xb76 <main+0x1b6>
						{
							
						}
						else
						{
							LCD_udtGoTo(1, L_u8i);
     b68:	61 2f       	mov	r22, r17
     b6a:	81 e0       	ldi	r24, 0x01	; 1
     b6c:	0e 94 15 04 	call	0x82a	; 0x82a <LCD_udtGoTo>
							LCD_udtSendData (' ');
     b70:	80 e2       	ldi	r24, 0x20	; 32
     b72:	0e 94 b4 03 	call	0x768	; 0x768 <LCD_udtSendData>
				while(1)
				{
					LCD_udtGoTo(0, 0);
					LCD_udtPrintString("I can run ");
					unit8 L_u8i=0;
					for(L_u8i=0;L_u8i<16;L_u8i++)
     b76:	1f 5f       	subi	r17, 0xFF	; 255
     b78:	10 31       	cpi	r17, 0x10	; 16
     b7a:	c0 f2       	brcs	.-80     	; 0xb2c <main+0x16c>
     b7c:	8f ef       	ldi	r24, 0xFF	; 255
     b7e:	9d e3       	ldi	r25, 0x3D	; 61
     b80:	a9 e4       	ldi	r26, 0x49	; 73
     b82:	81 50       	subi	r24, 0x01	; 1
     b84:	90 40       	sbci	r25, 0x00	; 0
     b86:	a0 40       	sbci	r26, 0x00	; 0
     b88:	e1 f7       	brne	.-8      	; 0xb82 <main+0x1c2>
     b8a:	00 c0       	rjmp	.+0      	; 0xb8c <main+0x1cc>
     b8c:	00 00       	nop
						}
						
					}
					
					_delay_ms(1500);
					LCD_udtGoTo(0, 0);
     b8e:	60 e0       	ldi	r22, 0x00	; 0
     b90:	80 e0       	ldi	r24, 0x00	; 0
     b92:	0e 94 15 04 	call	0x82a	; 0x82a <LCD_udtGoTo>
					LCD_udtPrintString("Wait a Minute..");//10
     b96:	89 e2       	ldi	r24, 0x29	; 41
     b98:	91 e0       	ldi	r25, 0x01	; 1
     b9a:	0e 94 2d 04 	call	0x85a	; 0x85a <LCD_udtPrintString>
					LCD_udtAddSpecialChar(PERSON_3_POS, 1);
     b9e:	61 e0       	ldi	r22, 0x01	; 1
     ba0:	88 eb       	ldi	r24, 0xB8	; 184
     ba2:	90 e0       	ldi	r25, 0x00	; 0
     ba4:	0e 94 88 04 	call	0x910	; 0x910 <LCD_udtAddSpecialChar>
     ba8:	bf ef       	ldi	r27, 0xFF	; 255
     baa:	2d e3       	ldi	r18, 0x3D	; 61
     bac:	89 e4       	ldi	r24, 0x49	; 73
     bae:	b1 50       	subi	r27, 0x01	; 1
     bb0:	20 40       	sbci	r18, 0x00	; 0
     bb2:	80 40       	sbci	r24, 0x00	; 0
     bb4:	e1 f7       	brne	.-8      	; 0xbae <main+0x1ee>
     bb6:	00 c0       	rjmp	.+0      	; 0xbb8 <main+0x1f8>
     bb8:	00 00       	nop
					_delay_ms(1500);
					LCD_udtGoTo(0, 0);
     bba:	60 e0       	ldi	r22, 0x00	; 0
     bbc:	80 e0       	ldi	r24, 0x00	; 0
     bbe:	0e 94 15 04 	call	0x82a	; 0x82a <LCD_udtGoTo>
					LCD_udtPrintString("               ");//10
     bc2:	89 e3       	ldi	r24, 0x39	; 57
     bc4:	91 e0       	ldi	r25, 0x01	; 1
     bc6:	0e 94 2d 04 	call	0x85a	; 0x85a <LCD_udtPrintString>
					LCD_udtGoTo(0, 0);
     bca:	60 e0       	ldi	r22, 0x00	; 0
     bcc:	80 e0       	ldi	r24, 0x00	; 0
     bce:	0e 94 15 04 	call	0x82a	; 0x82a <LCD_udtGoTo>
					LCD_udtPrintString("give me ball");//10
     bd2:	89 e4       	ldi	r24, 0x49	; 73
     bd4:	91 e0       	ldi	r25, 0x01	; 1
     bd6:	0e 94 2d 04 	call	0x85a	; 0x85a <LCD_udtPrintString>
					for(L_u8i=0;L_u8i<15;L_u8i++)
     bda:	10 e0       	ldi	r17, 0x00	; 0
     bdc:	1f c0       	rjmp	.+62     	; 0xc1c <main+0x25c>
					{
						LCD_udtPrintSpecialChar(2,1,L_u8i);
     bde:	41 2f       	mov	r20, r17
     be0:	61 e0       	ldi	r22, 0x01	; 1
     be2:	82 e0       	ldi	r24, 0x02	; 2
     be4:	0e 94 a9 04 	call	0x952	; 0x952 <LCD_udtPrintSpecialChar>
     be8:	9f ef       	ldi	r25, 0xFF	; 255
     bea:	a7 e8       	ldi	r26, 0x87	; 135
     bec:	b3 e1       	ldi	r27, 0x13	; 19
     bee:	91 50       	subi	r25, 0x01	; 1
     bf0:	a0 40       	sbci	r26, 0x00	; 0
     bf2:	b0 40       	sbci	r27, 0x00	; 0
     bf4:	e1 f7       	brne	.-8      	; 0xbee <main+0x22e>
     bf6:	00 c0       	rjmp	.+0      	; 0xbf8 <main+0x238>
     bf8:	00 00       	nop
						_delay_ms(400);
						LCD_udtGoTo(1, L_u8i);
     bfa:	61 2f       	mov	r22, r17
     bfc:	81 e0       	ldi	r24, 0x01	; 1
     bfe:	0e 94 15 04 	call	0x82a	; 0x82a <LCD_udtGoTo>
						LCD_udtSendData (' ');
     c02:	80 e2       	ldi	r24, 0x20	; 32
     c04:	0e 94 b4 03 	call	0x768	; 0x768 <LCD_udtSendData>
						if(L_u8i+1==15)
     c08:	1e 30       	cpi	r17, 0x0E	; 14
     c0a:	39 f4       	brne	.+14     	; 0xc1a <main+0x25a>
						{
							LCD_udtGoTo(1, 14);
     c0c:	6e e0       	ldi	r22, 0x0E	; 14
     c0e:	81 e0       	ldi	r24, 0x01	; 1
     c10:	0e 94 15 04 	call	0x82a	; 0x82a <LCD_udtGoTo>
							LCD_udtSendData (' ');
     c14:	80 e2       	ldi	r24, 0x20	; 32
     c16:	0e 94 b4 03 	call	0x768	; 0x768 <LCD_udtSendData>
					_delay_ms(1500);
					LCD_udtGoTo(0, 0);
					LCD_udtPrintString("               ");//10
					LCD_udtGoTo(0, 0);
					LCD_udtPrintString("give me ball");//10
					for(L_u8i=0;L_u8i<15;L_u8i++)
     c1a:	1f 5f       	subi	r17, 0xFF	; 255
     c1c:	1f 30       	cpi	r17, 0x0F	; 15
     c1e:	f8 f2       	brcs	.-66     	; 0xbde <main+0x21e>
							LCD_udtGoTo(1, 14);
							LCD_udtSendData (' ');
						}
					}

					LCD_udtAddSpecialChar(PERSON_4_POS, 0);
     c20:	60 e0       	ldi	r22, 0x00	; 0
     c22:	88 ea       	ldi	r24, 0xA8	; 168
     c24:	90 e0       	ldi	r25, 0x00	; 0
     c26:	0e 94 88 04 	call	0x910	; 0x910 <LCD_udtAddSpecialChar>
					LCD_udtAddSpecialChar(PERSON_5_POS, 2);
     c2a:	62 e0       	ldi	r22, 0x02	; 2
     c2c:	80 ea       	ldi	r24, 0xA0	; 160
     c2e:	90 e0       	ldi	r25, 0x00	; 0
     c30:	0e 94 88 04 	call	0x910	; 0x910 <LCD_udtAddSpecialChar>
					LCD_udtGoTo(0, 0);
     c34:	60 e0       	ldi	r22, 0x00	; 0
     c36:	80 e0       	ldi	r24, 0x00	; 0
     c38:	0e 94 15 04 	call	0x82a	; 0x82a <LCD_udtGoTo>
					LCD_udtPrintString("it\'s Fun    ");//10
     c3c:	86 e5       	ldi	r24, 0x56	; 86
     c3e:	91 e0       	ldi	r25, 0x01	; 1
     c40:	0e 94 2d 04 	call	0x85a	; 0x85a <LCD_udtPrintString>
					for(L_u8i=0;L_u8i<15;L_u8i++)
     c44:	10 e0       	ldi	r17, 0x00	; 0
     c46:	1d c0       	rjmp	.+58     	; 0xc82 <main+0x2c2>
					{
						
						LCD_udtPrintSpecialChar(0,1,15);
     c48:	4f e0       	ldi	r20, 0x0F	; 15
     c4a:	61 e0       	ldi	r22, 0x01	; 1
     c4c:	80 e0       	ldi	r24, 0x00	; 0
     c4e:	0e 94 a9 04 	call	0x952	; 0x952 <LCD_udtPrintSpecialChar>
     c52:	2f ef       	ldi	r18, 0xFF	; 255
     c54:	87 e8       	ldi	r24, 0x87	; 135
     c56:	93 e1       	ldi	r25, 0x13	; 19
     c58:	21 50       	subi	r18, 0x01	; 1
     c5a:	80 40       	sbci	r24, 0x00	; 0
     c5c:	90 40       	sbci	r25, 0x00	; 0
     c5e:	e1 f7       	brne	.-8      	; 0xc58 <main+0x298>
     c60:	00 c0       	rjmp	.+0      	; 0xc62 <main+0x2a2>
     c62:	00 00       	nop
						_delay_ms(400);
						LCD_udtPrintSpecialChar(2,1,15);
     c64:	4f e0       	ldi	r20, 0x0F	; 15
     c66:	61 e0       	ldi	r22, 0x01	; 1
     c68:	82 e0       	ldi	r24, 0x02	; 2
     c6a:	0e 94 a9 04 	call	0x952	; 0x952 <LCD_udtPrintSpecialChar>
     c6e:	af ef       	ldi	r26, 0xFF	; 255
     c70:	b7 e8       	ldi	r27, 0x87	; 135
     c72:	23 e1       	ldi	r18, 0x13	; 19
     c74:	a1 50       	subi	r26, 0x01	; 1
     c76:	b0 40       	sbci	r27, 0x00	; 0
     c78:	20 40       	sbci	r18, 0x00	; 0
     c7a:	e1 f7       	brne	.-8      	; 0xc74 <main+0x2b4>
     c7c:	00 c0       	rjmp	.+0      	; 0xc7e <main+0x2be>
     c7e:	00 00       	nop

					LCD_udtAddSpecialChar(PERSON_4_POS, 0);
					LCD_udtAddSpecialChar(PERSON_5_POS, 2);
					LCD_udtGoTo(0, 0);
					LCD_udtPrintString("it\'s Fun    ");//10
					for(L_u8i=0;L_u8i<15;L_u8i++)
     c80:	1f 5f       	subi	r17, 0xFF	; 255
     c82:	1f 30       	cpi	r17, 0x0F	; 15
     c84:	08 f3       	brcs	.-62     	; 0xc48 <main+0x288>
						LCD_udtPrintSpecialChar(0,1,15);
						_delay_ms(400);
						LCD_udtPrintSpecialChar(2,1,15);
						_delay_ms(400);
					}
					LCD_udtPrintSpecialChar(1,1,15);
     c86:	4f e0       	ldi	r20, 0x0F	; 15
     c88:	61 e0       	ldi	r22, 0x01	; 1
     c8a:	81 e0       	ldi	r24, 0x01	; 1
     c8c:	0e 94 a9 04 	call	0x952	; 0x952 <LCD_udtPrintSpecialChar>
					LCD_udtAddSpecialChar(PERSON_6_POS, 2);
     c90:	62 e0       	ldi	r22, 0x02	; 2
     c92:	88 e9       	ldi	r24, 0x98	; 152
     c94:	90 e0       	ldi	r25, 0x00	; 0
     c96:	0e 94 88 04 	call	0x910	; 0x910 <LCD_udtAddSpecialChar>
					LCD_udtAddSpecialChar(ball_2_POS, 3);
     c9a:	63 e0       	ldi	r22, 0x03	; 3
     c9c:	80 e9       	ldi	r24, 0x90	; 144
     c9e:	90 e0       	ldi	r25, 0x00	; 0
     ca0:	0e 94 88 04 	call	0x910	; 0x910 <LCD_udtAddSpecialChar>
					for(L_u8i=0;L_u8i<15;L_u8i++)
     ca4:	00 e0       	ldi	r16, 0x00	; 0
     ca6:	3e c0       	rjmp	.+124    	; 0xd24 <main+0x364>
					{
						LCD_udtPrintSpecialChar(2,1,(15-L_u8i));
     ca8:	1f e0       	ldi	r17, 0x0F	; 15
     caa:	10 1b       	sub	r17, r16
     cac:	41 2f       	mov	r20, r17
     cae:	61 e0       	ldi	r22, 0x01	; 1
     cb0:	82 e0       	ldi	r24, 0x02	; 2
     cb2:	0e 94 a9 04 	call	0x952	; 0x952 <LCD_udtPrintSpecialChar>
     cb6:	8f ef       	ldi	r24, 0xFF	; 255
     cb8:	93 ec       	ldi	r25, 0xC3	; 195
     cba:	a9 e0       	ldi	r26, 0x09	; 9
     cbc:	81 50       	subi	r24, 0x01	; 1
     cbe:	90 40       	sbci	r25, 0x00	; 0
     cc0:	a0 40       	sbci	r26, 0x00	; 0
     cc2:	e1 f7       	brne	.-8      	; 0xcbc <main+0x2fc>
     cc4:	00 c0       	rjmp	.+0      	; 0xcc6 <main+0x306>
     cc6:	00 00       	nop
						_delay_ms(200);
						LCD_udtPrintSpecialChar(1,1,(15-L_u8i));
     cc8:	41 2f       	mov	r20, r17
     cca:	61 e0       	ldi	r22, 0x01	; 1
     ccc:	81 e0       	ldi	r24, 0x01	; 1
     cce:	0e 94 a9 04 	call	0x952	; 0x952 <LCD_udtPrintSpecialChar>
     cd2:	bf ef       	ldi	r27, 0xFF	; 255
     cd4:	20 e7       	ldi	r18, 0x70	; 112
     cd6:	82 e0       	ldi	r24, 0x02	; 2
     cd8:	b1 50       	subi	r27, 0x01	; 1
     cda:	20 40       	sbci	r18, 0x00	; 0
     cdc:	80 40       	sbci	r24, 0x00	; 0
     cde:	e1 f7       	brne	.-8      	; 0xcd8 <main+0x318>
     ce0:	00 c0       	rjmp	.+0      	; 0xce2 <main+0x322>
     ce2:	00 00       	nop
						_delay_ms(50);
						LCD_udtPrintSpecialChar(3,1,(13-L_u8i));
     ce4:	8d e0       	ldi	r24, 0x0D	; 13
     ce6:	f8 2e       	mov	r15, r24
     ce8:	f0 1a       	sub	r15, r16
     cea:	4f 2d       	mov	r20, r15
     cec:	61 e0       	ldi	r22, 0x01	; 1
     cee:	83 e0       	ldi	r24, 0x03	; 3
     cf0:	0e 94 a9 04 	call	0x952	; 0x952 <LCD_udtPrintSpecialChar>
     cf4:	9f ef       	ldi	r25, 0xFF	; 255
     cf6:	a3 ec       	ldi	r26, 0xC3	; 195
     cf8:	b9 e0       	ldi	r27, 0x09	; 9
     cfa:	91 50       	subi	r25, 0x01	; 1
     cfc:	a0 40       	sbci	r26, 0x00	; 0
     cfe:	b0 40       	sbci	r27, 0x00	; 0
     d00:	e1 f7       	brne	.-8      	; 0xcfa <main+0x33a>
     d02:	00 c0       	rjmp	.+0      	; 0xd04 <main+0x344>
     d04:	00 00       	nop
						_delay_ms(200);
						
						LCD_udtGoTo(1, (15-L_u8i));
     d06:	61 2f       	mov	r22, r17
     d08:	81 e0       	ldi	r24, 0x01	; 1
     d0a:	0e 94 15 04 	call	0x82a	; 0x82a <LCD_udtGoTo>
						LCD_udtSendData (' ');
     d0e:	80 e2       	ldi	r24, 0x20	; 32
     d10:	0e 94 b4 03 	call	0x768	; 0x768 <LCD_udtSendData>
						LCD_udtGoTo(1, (13-L_u8i));
     d14:	6f 2d       	mov	r22, r15
     d16:	81 e0       	ldi	r24, 0x01	; 1
     d18:	0e 94 15 04 	call	0x82a	; 0x82a <LCD_udtGoTo>
						LCD_udtSendData (' ');
     d1c:	80 e2       	ldi	r24, 0x20	; 32
     d1e:	0e 94 b4 03 	call	0x768	; 0x768 <LCD_udtSendData>
						_delay_ms(400);
					}
					LCD_udtPrintSpecialChar(1,1,15);
					LCD_udtAddSpecialChar(PERSON_6_POS, 2);
					LCD_udtAddSpecialChar(ball_2_POS, 3);
					for(L_u8i=0;L_u8i<15;L_u8i++)
     d22:	0f 5f       	subi	r16, 0xFF	; 255
     d24:	0f 30       	cpi	r16, 0x0F	; 15
     d26:	08 f4       	brcc	.+2      	; 0xd2a <main+0x36a>
     d28:	bf cf       	rjmp	.-130    	; 0xca8 <main+0x2e8>
						LCD_udtGoTo(1, (13-L_u8i));
						LCD_udtSendData (' ');
						
						
					}
					LCD_udtAddSpecialChar(PERSON_2_POS, 3);
     d2a:	63 e0       	ldi	r22, 0x03	; 3
     d2c:	80 ec       	ldi	r24, 0xC0	; 192
     d2e:	90 e0       	ldi	r25, 0x00	; 0
     d30:	0e 94 88 04 	call	0x910	; 0x910 <LCD_udtAddSpecialChar>
					LCD_udtPrintSpecialChar(3,1,0);
     d34:	40 e0       	ldi	r20, 0x00	; 0
     d36:	61 e0       	ldi	r22, 0x01	; 1
     d38:	83 e0       	ldi	r24, 0x03	; 3
     d3a:	0e 94 a9 04 	call	0x952	; 0x952 <LCD_udtPrintSpecialChar>
     d3e:	2f ef       	ldi	r18, 0xFF	; 255
     d40:	8d e3       	ldi	r24, 0x3D	; 61
     d42:	99 e4       	ldi	r25, 0x49	; 73
     d44:	21 50       	subi	r18, 0x01	; 1
     d46:	80 40       	sbci	r24, 0x00	; 0
     d48:	90 40       	sbci	r25, 0x00	; 0
     d4a:	e1 f7       	brne	.-8      	; 0xd44 <main+0x384>
     d4c:	00 c0       	rjmp	.+0      	; 0xd4e <main+0x38e>
     d4e:	00 00       	nop
					_delay_ms(1500);
					LCD_udtGoTo(0, 0);
     d50:	60 e0       	ldi	r22, 0x00	; 0
     d52:	80 e0       	ldi	r24, 0x00	; 0
     d54:	0e 94 15 04 	call	0x82a	; 0x82a <LCD_udtGoTo>
					LCD_udtPrintString("i\'M Tired..");
     d58:	83 e6       	ldi	r24, 0x63	; 99
     d5a:	91 e0       	ldi	r25, 0x01	; 1
     d5c:	0e 94 2d 04 	call	0x85a	; 0x85a <LCD_udtPrintString>
     d60:	af ef       	ldi	r26, 0xFF	; 255
     d62:	bd e3       	ldi	r27, 0x3D	; 61
     d64:	29 e4       	ldi	r18, 0x49	; 73
     d66:	a1 50       	subi	r26, 0x01	; 1
     d68:	b0 40       	sbci	r27, 0x00	; 0
     d6a:	20 40       	sbci	r18, 0x00	; 0
     d6c:	e1 f7       	brne	.-8      	; 0xd66 <main+0x3a6>
     d6e:	00 c0       	rjmp	.+0      	; 0xd70 <main+0x3b0>
     d70:	00 00       	nop
					_delay_ms(1500);
					LCD_udtGoTo(0, 0);
     d72:	60 e0       	ldi	r22, 0x00	; 0
     d74:	80 e0       	ldi	r24, 0x00	; 0
     d76:	0e 94 15 04 	call	0x82a	; 0x82a <LCD_udtGoTo>
					LCD_udtPrintString("i\'ll go home");
     d7a:	8f e6       	ldi	r24, 0x6F	; 111
     d7c:	91 e0       	ldi	r25, 0x01	; 1
     d7e:	0e 94 2d 04 	call	0x85a	; 0x85a <LCD_udtPrintString>
     d82:	8f ef       	ldi	r24, 0xFF	; 255
     d84:	93 ed       	ldi	r25, 0xD3	; 211
     d86:	a0 e3       	ldi	r26, 0x30	; 48
     d88:	81 50       	subi	r24, 0x01	; 1
     d8a:	90 40       	sbci	r25, 0x00	; 0
     d8c:	a0 40       	sbci	r26, 0x00	; 0
     d8e:	e1 f7       	brne	.-8      	; 0xd88 <main+0x3c8>
     d90:	00 c0       	rjmp	.+0      	; 0xd92 <main+0x3d2>
     d92:	00 00       	nop
					_delay_ms(1000);
					LCD_udtAddSpecialChar(PERSON_1_POS, 2);
     d94:	62 e0       	ldi	r22, 0x02	; 2
     d96:	88 ec       	ldi	r24, 0xC8	; 200
     d98:	90 e0       	ldi	r25, 0x00	; 0
     d9a:	0e 94 88 04 	call	0x910	; 0x910 <LCD_udtAddSpecialChar>
					LCD_udtAddSpecialChar(Home_A, 0);
     d9e:	60 e0       	ldi	r22, 0x00	; 0
     da0:	88 e8       	ldi	r24, 0x88	; 136
     da2:	90 e0       	ldi	r25, 0x00	; 0
     da4:	0e 94 88 04 	call	0x910	; 0x910 <LCD_udtAddSpecialChar>
					LCD_udtPrintSpecialChar(0,0,13);
     da8:	4d e0       	ldi	r20, 0x0D	; 13
     daa:	60 e0       	ldi	r22, 0x00	; 0
     dac:	80 e0       	ldi	r24, 0x00	; 0
     dae:	0e 94 a9 04 	call	0x952	; 0x952 <LCD_udtPrintSpecialChar>
					LCD_udtAddSpecialChar(Home_B, 1);
     db2:	61 e0       	ldi	r22, 0x01	; 1
     db4:	80 e8       	ldi	r24, 0x80	; 128
     db6:	90 e0       	ldi	r25, 0x00	; 0
     db8:	0e 94 88 04 	call	0x910	; 0x910 <LCD_udtAddSpecialChar>
					LCD_udtPrintSpecialChar(1,0,14);
     dbc:	4e e0       	ldi	r20, 0x0E	; 14
     dbe:	60 e0       	ldi	r22, 0x00	; 0
     dc0:	81 e0       	ldi	r24, 0x01	; 1
     dc2:	0e 94 a9 04 	call	0x952	; 0x952 <LCD_udtPrintSpecialChar>
					LCD_udtAddSpecialChar(Home_C, 4);
     dc6:	64 e0       	ldi	r22, 0x04	; 4
     dc8:	88 e7       	ldi	r24, 0x78	; 120
     dca:	90 e0       	ldi	r25, 0x00	; 0
     dcc:	0e 94 88 04 	call	0x910	; 0x910 <LCD_udtAddSpecialChar>
					LCD_udtPrintSpecialChar(4,0,15);
     dd0:	4f e0       	ldi	r20, 0x0F	; 15
     dd2:	60 e0       	ldi	r22, 0x00	; 0
     dd4:	84 e0       	ldi	r24, 0x04	; 4
     dd6:	0e 94 a9 04 	call	0x952	; 0x952 <LCD_udtPrintSpecialChar>
					LCD_udtAddSpecialChar(Home_L, 5);
     dda:	65 e0       	ldi	r22, 0x05	; 5
     ddc:	80 e7       	ldi	r24, 0x70	; 112
     dde:	90 e0       	ldi	r25, 0x00	; 0
     de0:	0e 94 88 04 	call	0x910	; 0x910 <LCD_udtAddSpecialChar>
					LCD_udtPrintSpecialChar(5,1,13);
     de4:	4d e0       	ldi	r20, 0x0D	; 13
     de6:	61 e0       	ldi	r22, 0x01	; 1
     de8:	85 e0       	ldi	r24, 0x05	; 5
     dea:	0e 94 a9 04 	call	0x952	; 0x952 <LCD_udtPrintSpecialChar>
					LCD_udtAddSpecialChar(Home_J, 6);
     dee:	66 e0       	ldi	r22, 0x06	; 6
     df0:	88 e6       	ldi	r24, 0x68	; 104
     df2:	90 e0       	ldi	r25, 0x00	; 0
     df4:	0e 94 88 04 	call	0x910	; 0x910 <LCD_udtAddSpecialChar>
					LCD_udtPrintSpecialChar(6,1,14);
     df8:	4e e0       	ldi	r20, 0x0E	; 14
     dfa:	61 e0       	ldi	r22, 0x01	; 1
     dfc:	86 e0       	ldi	r24, 0x06	; 6
     dfe:	0e 94 a9 04 	call	0x952	; 0x952 <LCD_udtPrintSpecialChar>
					LCD_udtAddSpecialChar(Home_K, 7);
     e02:	67 e0       	ldi	r22, 0x07	; 7
     e04:	80 e6       	ldi	r24, 0x60	; 96
     e06:	90 e0       	ldi	r25, 0x00	; 0
     e08:	0e 94 88 04 	call	0x910	; 0x910 <LCD_udtAddSpecialChar>
					LCD_udtPrintSpecialChar(7,1,15);
     e0c:	4f e0       	ldi	r20, 0x0F	; 15
     e0e:	61 e0       	ldi	r22, 0x01	; 1
     e10:	87 e0       	ldi	r24, 0x07	; 7
     e12:	0e 94 a9 04 	call	0x952	; 0x952 <LCD_udtPrintSpecialChar>
					
					for(L_u8i=0;L_u8i<13;L_u8i++)
     e16:	10 e0       	ldi	r17, 0x00	; 0
     e18:	26 c0       	rjmp	.+76     	; 0xe66 <main+0x4a6>
					{
						LCD_udtPrintSpecialChar(2,1,L_u8i);
     e1a:	41 2f       	mov	r20, r17
     e1c:	61 e0       	ldi	r22, 0x01	; 1
     e1e:	82 e0       	ldi	r24, 0x02	; 2
     e20:	0e 94 a9 04 	call	0x952	; 0x952 <LCD_udtPrintSpecialChar>
     e24:	bf ef       	ldi	r27, 0xFF	; 255
     e26:	23 ec       	ldi	r18, 0xC3	; 195
     e28:	89 e0       	ldi	r24, 0x09	; 9
     e2a:	b1 50       	subi	r27, 0x01	; 1
     e2c:	20 40       	sbci	r18, 0x00	; 0
     e2e:	80 40       	sbci	r24, 0x00	; 0
     e30:	e1 f7       	brne	.-8      	; 0xe2a <main+0x46a>
     e32:	00 c0       	rjmp	.+0      	; 0xe34 <main+0x474>
     e34:	00 00       	nop
						_delay_ms(200);
						LCD_udtPrintSpecialChar(3,1,L_u8i);
     e36:	41 2f       	mov	r20, r17
     e38:	61 e0       	ldi	r22, 0x01	; 1
     e3a:	83 e0       	ldi	r24, 0x03	; 3
     e3c:	0e 94 a9 04 	call	0x952	; 0x952 <LCD_udtPrintSpecialChar>
     e40:	9f ef       	ldi	r25, 0xFF	; 255
     e42:	a1 ee       	ldi	r26, 0xE1	; 225
     e44:	b4 e0       	ldi	r27, 0x04	; 4
     e46:	91 50       	subi	r25, 0x01	; 1
     e48:	a0 40       	sbci	r26, 0x00	; 0
     e4a:	b0 40       	sbci	r27, 0x00	; 0
     e4c:	e1 f7       	brne	.-8      	; 0xe46 <main+0x486>
     e4e:	00 c0       	rjmp	.+0      	; 0xe50 <main+0x490>
     e50:	00 00       	nop
						_delay_ms(100);
						if(L_u8i==15)
     e52:	1f 30       	cpi	r17, 0x0F	; 15
     e54:	39 f0       	breq	.+14     	; 0xe64 <main+0x4a4>
						{
								
						}
						else
						{
							LCD_udtGoTo(1, L_u8i);
     e56:	61 2f       	mov	r22, r17
     e58:	81 e0       	ldi	r24, 0x01	; 1
     e5a:	0e 94 15 04 	call	0x82a	; 0x82a <LCD_udtGoTo>
							LCD_udtSendData (' ');
     e5e:	80 e2       	ldi	r24, 0x20	; 32
     e60:	0e 94 b4 03 	call	0x768	; 0x768 <LCD_udtSendData>
					LCD_udtAddSpecialChar(Home_J, 6);
					LCD_udtPrintSpecialChar(6,1,14);
					LCD_udtAddSpecialChar(Home_K, 7);
					LCD_udtPrintSpecialChar(7,1,15);
					
					for(L_u8i=0;L_u8i<13;L_u8i++)
     e64:	1f 5f       	subi	r17, 0xFF	; 255
     e66:	1d 30       	cpi	r17, 0x0D	; 13
     e68:	c0 f2       	brcs	.-80     	; 0xe1a <main+0x45a>
							LCD_udtGoTo(1, L_u8i);
							LCD_udtSendData (' ');
						}
							
					}
					LCD_udtClear();
     e6a:	0e 94 11 04 	call	0x822	; 0x822 <LCD_udtClear>
					LCD_udtAddSpecialChar(arrow, 0);
     e6e:	60 e0       	ldi	r22, 0x00	; 0
     e70:	80 ed       	ldi	r24, 0xD0	; 208
     e72:	90 e0       	ldi	r25, 0x00	; 0
     e74:	0e 94 88 04 	call	0x910	; 0x910 <LCD_udtAddSpecialChar>
					LCD_udtAddSpecialChar(arrow, 0);
     e78:	60 e0       	ldi	r22, 0x00	; 0
     e7a:	80 ed       	ldi	r24, 0xD0	; 208
     e7c:	90 e0       	ldi	r25, 0x00	; 0
     e7e:	0e 94 88 04 	call	0x910	; 0x910 <LCD_udtAddSpecialChar>
					LCD_udtClear();
     e82:	0e 94 11 04 	call	0x822	; 0x822 <LCD_udtClear>
					LCD_udtPrintSpecialChar(0,0,0);
     e86:	40 e0       	ldi	r20, 0x00	; 0
     e88:	60 e0       	ldi	r22, 0x00	; 0
     e8a:	80 e0       	ldi	r24, 0x00	; 0
     e8c:	0e 94 a9 04 	call	0x952	; 0x952 <LCD_udtPrintSpecialChar>
			LCD_udtPrintSpecialChar(0,1,0);
			arrow_pos=1;
		}
		else
		{
			if(0==arrow_pos&&1==PB2_Value)
     e90:	22 c1       	rjmp	.+580    	; 0x10d6 <main+0x716>
					LCD_udtClear();
					LCD_udtPrintSpecialChar(0,0,0);
					break;
				}
			}
			else if (1==arrow_pos&&1==PB2_Value)
     e92:	21 e0       	ldi	r18, 0x01	; 1
     e94:	e2 12       	cpse	r14, r18
     e96:	1f c1       	rjmp	.+574    	; 0x10d6 <main+0x716>
     e98:	8a 81       	ldd	r24, Y+2	; 0x02
     e9a:	81 30       	cpi	r24, 0x01	; 1
     e9c:	09 f0       	breq	.+2      	; 0xea0 <main+0x4e0>
     e9e:	1b c1       	rjmp	.+566    	; 0x10d6 <main+0x716>
			{
				
				LCD_udtClear();
     ea0:	0e 94 11 04 	call	0x822	; 0x822 <LCD_udtClear>
				LCD_udtPrintStringAtXY ("Hi Enter Number1",0,0);
     ea4:	40 e0       	ldi	r20, 0x00	; 0
     ea6:	60 e0       	ldi	r22, 0x00	; 0
     ea8:	8c e7       	ldi	r24, 0x7C	; 124
     eaa:	91 e0       	ldi	r25, 0x01	; 1
     eac:	0e 94 42 04 	call	0x884	; 0x884 <LCD_udtPrintStringAtXY>
				volatile char number1[20] = {0,0,0,0,0,0,0,0,0,0,0,0,0,0,0,0,0,0,0,0};
     eb0:	fe 01       	movw	r30, r28
     eb2:	77 96       	adiw	r30, 0x17	; 23
     eb4:	84 e1       	ldi	r24, 0x14	; 20
     eb6:	df 01       	movw	r26, r30
     eb8:	1d 92       	st	X+, r1
     eba:	8a 95       	dec	r24
     ebc:	e9 f7       	brne	.-6      	; 0xeb8 <main+0x4f8>
				unit8 L_u8number=KEYPAD_NOT_PRESSED,L_u8j=0,operant1=1,operant2=1,operation=0;
     ebe:	8e e4       	ldi	r24, 0x4E	; 78
     ec0:	8d a7       	std	Y+45, r24	; 0x2d
     ec2:	81 e0       	ldi	r24, 0x01	; 1
     ec4:	8c a7       	std	Y+44, r24	; 0x2c
     ec6:	8b a7       	std	Y+43, r24	; 0x2b
     ec8:	10 e0       	ldi	r17, 0x00	; 0
				unit32 u32Result_keypad=0;
				while((L_u8number!='\0'))
     eca:	27 c0       	rjmp	.+78     	; 0xf1a <main+0x55a>
				{
					L_u8number=KEYPAD_NOT_PRESSED;
     ecc:	8e e4       	ldi	r24, 0x4E	; 78
     ece:	8d a7       	std	Y+45, r24	; 0x2d
					while(L_u8number==KEYPAD_NOT_PRESSED)
     ed0:	04 c0       	rjmp	.+8      	; 0xeda <main+0x51a>
					{
						
						KEYPAD_udtGetPressedKey(&L_u8number);
     ed2:	ce 01       	movw	r24, r28
     ed4:	8d 96       	adiw	r24, 0x2d	; 45
     ed6:	0e 94 fc 01 	call	0x3f8	; 0x3f8 <KEYPAD_udtGetPressedKey>
				unit8 L_u8number=KEYPAD_NOT_PRESSED,L_u8j=0,operant1=1,operant2=1,operation=0;
				unit32 u32Result_keypad=0;
				while((L_u8number!='\0'))
				{
					L_u8number=KEYPAD_NOT_PRESSED;
					while(L_u8number==KEYPAD_NOT_PRESSED)
     eda:	8d a5       	ldd	r24, Y+45	; 0x2d
     edc:	8e 34       	cpi	r24, 0x4E	; 78
     ede:	c9 f3       	breq	.-14     	; 0xed2 <main+0x512>
					{
						
						KEYPAD_udtGetPressedKey(&L_u8number);
						
					}
					if(L_u8j==0&&L_u8number=='\0')
     ee0:	11 11       	cpse	r17, r1
     ee2:	02 c0       	rjmp	.+4      	; 0xee8 <main+0x528>
     ee4:	88 23       	and	r24, r24
     ee6:	c9 f0       	breq	.+50     	; 0xf1a <main+0x55a>
					{
						L_u8number==KEYPAD_NOT_PRESSED;
					}
					else
					{
						LCD_udtGoTo(1, L_u8j);
     ee8:	61 2f       	mov	r22, r17
     eea:	81 e0       	ldi	r24, 0x01	; 1
     eec:	0e 94 15 04 	call	0x82a	; 0x82a <LCD_udtGoTo>
						LCD_udtSendData(L_u8number);
     ef0:	8d a5       	ldd	r24, Y+45	; 0x2d
     ef2:	0e 94 b4 03 	call	0x768	; 0x768 <LCD_udtSendData>
     ef6:	bf ef       	ldi	r27, 0xFF	; 255
     ef8:	23 ed       	ldi	r18, 0xD3	; 211
     efa:	80 e3       	ldi	r24, 0x30	; 48
     efc:	b1 50       	subi	r27, 0x01	; 1
     efe:	20 40       	sbci	r18, 0x00	; 0
     f00:	80 40       	sbci	r24, 0x00	; 0
     f02:	e1 f7       	brne	.-8      	; 0xefc <main+0x53c>
     f04:	00 c0       	rjmp	.+0      	; 0xf06 <main+0x546>
     f06:	00 00       	nop
						_delay_ms(1000);
						number1[L_u8j]=L_u8number;
     f08:	8d a5       	ldd	r24, Y+45	; 0x2d
     f0a:	e7 e1       	ldi	r30, 0x17	; 23
     f0c:	f0 e0       	ldi	r31, 0x00	; 0
     f0e:	ec 0f       	add	r30, r28
     f10:	fd 1f       	adc	r31, r29
     f12:	e1 0f       	add	r30, r17
     f14:	f1 1d       	adc	r31, r1
     f16:	80 83       	st	Z, r24
						L_u8j++;
     f18:	1f 5f       	subi	r17, 0xFF	; 255
				LCD_udtClear();
				LCD_udtPrintStringAtXY ("Hi Enter Number1",0,0);
				volatile char number1[20] = {0,0,0,0,0,0,0,0,0,0,0,0,0,0,0,0,0,0,0,0};
				unit8 L_u8number=KEYPAD_NOT_PRESSED,L_u8j=0,operant1=1,operant2=1,operation=0;
				unit32 u32Result_keypad=0;
				while((L_u8number!='\0'))
     f1a:	8d a5       	ldd	r24, Y+45	; 0x2d
     f1c:	81 11       	cpse	r24, r1
     f1e:	d6 cf       	rjmp	.-84     	; 0xecc <main+0x50c>
					}
					
				}
				
				
				KEYPAD_udtConvertStrToNum(number1,&operant1);//convert string to number
     f20:	be 01       	movw	r22, r28
     f22:	64 5d       	subi	r22, 0xD4	; 212
     f24:	7f 4f       	sbci	r23, 0xFF	; 255
     f26:	ce 01       	movw	r24, r28
     f28:	47 96       	adiw	r24, 0x17	; 23
     f2a:	0e 94 b1 02 	call	0x562	; 0x562 <KEYPAD_udtConvertStrToNum>
				LCD_udtClear();
     f2e:	0e 94 11 04 	call	0x822	; 0x822 <LCD_udtClear>
				LCD_udtPrintStringAtXY ("Enter operation",0,0);
     f32:	40 e0       	ldi	r20, 0x00	; 0
     f34:	60 e0       	ldi	r22, 0x00	; 0
     f36:	8d e8       	ldi	r24, 0x8D	; 141
     f38:	91 e0       	ldi	r25, 0x01	; 1
     f3a:	0e 94 42 04 	call	0x884	; 0x884 <LCD_udtPrintStringAtXY>
				L_u8number=KEYPAD_NOT_PRESSED;
     f3e:	8e e4       	ldi	r24, 0x4E	; 78
     f40:	8d a7       	std	Y+45, r24	; 0x2d
			{
				
				LCD_udtClear();
				LCD_udtPrintStringAtXY ("Hi Enter Number1",0,0);
				volatile char number1[20] = {0,0,0,0,0,0,0,0,0,0,0,0,0,0,0,0,0,0,0,0};
				unit8 L_u8number=KEYPAD_NOT_PRESSED,L_u8j=0,operant1=1,operant2=1,operation=0;
     f42:	00 e0       	ldi	r16, 0x00	; 0
				
				KEYPAD_udtConvertStrToNum(number1,&operant1);//convert string to number
				LCD_udtClear();
				LCD_udtPrintStringAtXY ("Enter operation",0,0);
				L_u8number=KEYPAD_NOT_PRESSED;
				while((L_u8number!='\0'))
     f44:	23 c0       	rjmp	.+70     	; 0xf8c <main+0x5cc>
				{
					while(L_u8number==KEYPAD_NOT_PRESSED)
					{
						
						KEYPAD_udtGetPressedKey(&L_u8number);
     f46:	ce 01       	movw	r24, r28
     f48:	8d 96       	adiw	r24, 0x2d	; 45
     f4a:	0e 94 fc 01 	call	0x3f8	; 0x3f8 <KEYPAD_udtGetPressedKey>
				LCD_udtClear();
				LCD_udtPrintStringAtXY ("Enter operation",0,0);
				L_u8number=KEYPAD_NOT_PRESSED;
				while((L_u8number!='\0'))
				{
					while(L_u8number==KEYPAD_NOT_PRESSED)
     f4e:	8d a5       	ldd	r24, Y+45	; 0x2d
     f50:	8e 34       	cpi	r24, 0x4E	; 78
     f52:	c9 f3       	breq	.-14     	; 0xf46 <main+0x586>
					{
						
						KEYPAD_udtGetPressedKey(&L_u8number);
						
					}
					if(L_u8number=='\0')
     f54:	88 23       	and	r24, r24
     f56:	d1 f0       	breq	.+52     	; 0xf8c <main+0x5cc>
					{
						L_u8number==KEYPAD_NOT_PRESSED;
					}
					else if((L_u8number!='*')&&(L_u8number!='+')&&(L_u8number!='-')&&(L_u8number!='/'))
     f58:	96 ed       	ldi	r25, 0xD6	; 214
     f5a:	98 0f       	add	r25, r24
     f5c:	92 30       	cpi	r25, 0x02	; 2
     f5e:	20 f0       	brcs	.+8      	; 0xf68 <main+0x5a8>
     f60:	8d 32       	cpi	r24, 0x2D	; 45
     f62:	11 f0       	breq	.+4      	; 0xf68 <main+0x5a8>
     f64:	8f 32       	cpi	r24, 0x2F	; 47
     f66:	91 f4       	brne	.+36     	; 0xf8c <main+0x5cc>
					{
						L_u8number==KEYPAD_NOT_PRESSED;
					}
					else
					{
						LCD_udtGoTo(1, 0);
     f68:	60 e0       	ldi	r22, 0x00	; 0
     f6a:	81 e0       	ldi	r24, 0x01	; 1
     f6c:	0e 94 15 04 	call	0x82a	; 0x82a <LCD_udtGoTo>
						LCD_udtSendData(L_u8number);
     f70:	8d a5       	ldd	r24, Y+45	; 0x2d
     f72:	0e 94 b4 03 	call	0x768	; 0x768 <LCD_udtSendData>
     f76:	9f ef       	ldi	r25, 0xFF	; 255
     f78:	a3 ed       	ldi	r26, 0xD3	; 211
     f7a:	b0 e3       	ldi	r27, 0x30	; 48
     f7c:	91 50       	subi	r25, 0x01	; 1
     f7e:	a0 40       	sbci	r26, 0x00	; 0
     f80:	b0 40       	sbci	r27, 0x00	; 0
     f82:	e1 f7       	brne	.-8      	; 0xf7c <main+0x5bc>
     f84:	00 c0       	rjmp	.+0      	; 0xf86 <main+0x5c6>
     f86:	00 00       	nop
						_delay_ms(1000);
						operation=L_u8number;
     f88:	0d a5       	ldd	r16, Y+45	; 0x2d
						L_u8number='\0';
     f8a:	1d a6       	std	Y+45, r1	; 0x2d
				
				KEYPAD_udtConvertStrToNum(number1,&operant1);//convert string to number
				LCD_udtClear();
				LCD_udtPrintStringAtXY ("Enter operation",0,0);
				L_u8number=KEYPAD_NOT_PRESSED;
				while((L_u8number!='\0'))
     f8c:	8d a5       	ldd	r24, Y+45	; 0x2d
     f8e:	81 11       	cpse	r24, r1
     f90:	de cf       	rjmp	.-68     	; 0xf4e <main+0x58e>
						L_u8number='\0';
					}
					
				}
				
				LCD_udtClear();
     f92:	0e 94 11 04 	call	0x822	; 0x822 <LCD_udtClear>
				LCD_udtPrintStringAtXY ("Hi Enter Number2",0,0);
     f96:	40 e0       	ldi	r20, 0x00	; 0
     f98:	60 e0       	ldi	r22, 0x00	; 0
     f9a:	8d e9       	ldi	r24, 0x9D	; 157
     f9c:	91 e0       	ldi	r25, 0x01	; 1
     f9e:	0e 94 42 04 	call	0x884	; 0x884 <LCD_udtPrintStringAtXY>
				volatile char number2[20] = {0,0,0,0,0,0,0,0,0,0,0,0,0,0,0,0,0,0,0,0};
     fa2:	fe 01       	movw	r30, r28
     fa4:	33 96       	adiw	r30, 0x03	; 3
     fa6:	84 e1       	ldi	r24, 0x14	; 20
     fa8:	df 01       	movw	r26, r30
     faa:	1d 92       	st	X+, r1
     fac:	8a 95       	dec	r24
     fae:	e9 f7       	brne	.-6      	; 0xfaa <main+0x5ea>
				L_u8number=KEYPAD_NOT_PRESSED;
     fb0:	8e e4       	ldi	r24, 0x4E	; 78
     fb2:	8d a7       	std	Y+45, r24	; 0x2d
				L_u8j=0;
     fb4:	10 e0       	ldi	r17, 0x00	; 0
				while((L_u8number!='\0'))
     fb6:	27 c0       	rjmp	.+78     	; 0x1006 <main+0x646>
				{
					L_u8number=KEYPAD_NOT_PRESSED;		
     fb8:	8e e4       	ldi	r24, 0x4E	; 78
     fba:	8d a7       	std	Y+45, r24	; 0x2d
					while(L_u8number==KEYPAD_NOT_PRESSED)
     fbc:	04 c0       	rjmp	.+8      	; 0xfc6 <main+0x606>
					{
								
						KEYPAD_udtGetPressedKey(&L_u8number);
     fbe:	ce 01       	movw	r24, r28
     fc0:	8d 96       	adiw	r24, 0x2d	; 45
     fc2:	0e 94 fc 01 	call	0x3f8	; 0x3f8 <KEYPAD_udtGetPressedKey>
				L_u8number=KEYPAD_NOT_PRESSED;
				L_u8j=0;
				while((L_u8number!='\0'))
				{
					L_u8number=KEYPAD_NOT_PRESSED;		
					while(L_u8number==KEYPAD_NOT_PRESSED)
     fc6:	8d a5       	ldd	r24, Y+45	; 0x2d
     fc8:	8e 34       	cpi	r24, 0x4E	; 78
     fca:	c9 f3       	breq	.-14     	; 0xfbe <main+0x5fe>
					{
								
						KEYPAD_udtGetPressedKey(&L_u8number);
								
					}
					if(L_u8j==0&&L_u8number=='\0')
     fcc:	11 11       	cpse	r17, r1
     fce:	02 c0       	rjmp	.+4      	; 0xfd4 <main+0x614>
     fd0:	88 23       	and	r24, r24
     fd2:	c9 f0       	breq	.+50     	; 0x1006 <main+0x646>
					{
						L_u8number==KEYPAD_NOT_PRESSED;
					}
					else
					{
						LCD_udtGoTo(1, L_u8j);
     fd4:	61 2f       	mov	r22, r17
     fd6:	81 e0       	ldi	r24, 0x01	; 1
     fd8:	0e 94 15 04 	call	0x82a	; 0x82a <LCD_udtGoTo>
						LCD_udtSendData(L_u8number);
     fdc:	8d a5       	ldd	r24, Y+45	; 0x2d
     fde:	0e 94 b4 03 	call	0x768	; 0x768 <LCD_udtSendData>
     fe2:	bf ef       	ldi	r27, 0xFF	; 255
     fe4:	23 ed       	ldi	r18, 0xD3	; 211
     fe6:	80 e3       	ldi	r24, 0x30	; 48
     fe8:	b1 50       	subi	r27, 0x01	; 1
     fea:	20 40       	sbci	r18, 0x00	; 0
     fec:	80 40       	sbci	r24, 0x00	; 0
     fee:	e1 f7       	brne	.-8      	; 0xfe8 <main+0x628>
     ff0:	00 c0       	rjmp	.+0      	; 0xff2 <main+0x632>
     ff2:	00 00       	nop
						_delay_ms(1000);
						number2[L_u8j]=L_u8number;
     ff4:	8d a5       	ldd	r24, Y+45	; 0x2d
     ff6:	e3 e0       	ldi	r30, 0x03	; 3
     ff8:	f0 e0       	ldi	r31, 0x00	; 0
     ffa:	ec 0f       	add	r30, r28
     ffc:	fd 1f       	adc	r31, r29
     ffe:	e1 0f       	add	r30, r17
    1000:	f1 1d       	adc	r31, r1
    1002:	80 83       	st	Z, r24
						L_u8j++;
    1004:	1f 5f       	subi	r17, 0xFF	; 255
				LCD_udtClear();
				LCD_udtPrintStringAtXY ("Hi Enter Number2",0,0);
				volatile char number2[20] = {0,0,0,0,0,0,0,0,0,0,0,0,0,0,0,0,0,0,0,0};
				L_u8number=KEYPAD_NOT_PRESSED;
				L_u8j=0;
				while((L_u8number!='\0'))
    1006:	8d a5       	ldd	r24, Y+45	; 0x2d
    1008:	81 11       	cpse	r24, r1
    100a:	d6 cf       	rjmp	.-84     	; 0xfb8 <main+0x5f8>
						L_u8j++;
					}
							
				}
						
				KEYPAD_udtConvertStrToNum(number2,&operant2);//convert string to number
    100c:	be 01       	movw	r22, r28
    100e:	65 5d       	subi	r22, 0xD5	; 213
    1010:	7f 4f       	sbci	r23, 0xFF	; 255
    1012:	ce 01       	movw	r24, r28
    1014:	03 96       	adiw	r24, 0x03	; 3
    1016:	0e 94 b1 02 	call	0x562	; 0x562 <KEYPAD_udtConvertStrToNum>
				LCD_udtClear();
    101a:	0e 94 11 04 	call	0x822	; 0x822 <LCD_udtClear>
				LCD_udtPrintStringAtXY ("The result is ",0,0);
    101e:	40 e0       	ldi	r20, 0x00	; 0
    1020:	60 e0       	ldi	r22, 0x00	; 0
    1022:	8e ea       	ldi	r24, 0xAE	; 174
    1024:	91 e0       	ldi	r25, 0x01	; 1
    1026:	0e 94 42 04 	call	0x884	; 0x884 <LCD_udtPrintStringAtXY>
				switch(operation)
    102a:	0b 32       	cpi	r16, 0x2B	; 43
    102c:	49 f0       	breq	.+18     	; 0x1040 <main+0x680>
    102e:	18 f4       	brcc	.+6      	; 0x1036 <main+0x676>
    1030:	0a 32       	cpi	r16, 0x2A	; 42
    1032:	19 f1       	breq	.+70     	; 0x107a <main+0x6ba>
    1034:	2c c0       	rjmp	.+88     	; 0x108e <main+0x6ce>
    1036:	0d 32       	cpi	r16, 0x2D	; 45
    1038:	69 f0       	breq	.+26     	; 0x1054 <main+0x694>
    103a:	0f 32       	cpi	r16, 0x2F	; 47
    103c:	a9 f0       	breq	.+42     	; 0x1068 <main+0x6a8>
    103e:	27 c0       	rjmp	.+78     	; 0x108e <main+0x6ce>
				{
					case '+':	u32Result_keypad=operant1+operant2;break;
    1040:	8c a5       	ldd	r24, Y+44	; 0x2c
    1042:	6b a5       	ldd	r22, Y+43	; 0x2b
    1044:	70 e0       	ldi	r23, 0x00	; 0
    1046:	68 0f       	add	r22, r24
    1048:	71 1d       	adc	r23, r1
    104a:	07 2e       	mov	r0, r23
    104c:	00 0c       	add	r0, r0
    104e:	88 0b       	sbc	r24, r24
    1050:	99 0b       	sbc	r25, r25
    1052:	20 c0       	rjmp	.+64     	; 0x1094 <main+0x6d4>
					case '-':	u32Result_keypad=operant1-operant2;break;
    1054:	6c a5       	ldd	r22, Y+44	; 0x2c
    1056:	70 e0       	ldi	r23, 0x00	; 0
    1058:	8b a5       	ldd	r24, Y+43	; 0x2b
    105a:	68 1b       	sub	r22, r24
    105c:	71 09       	sbc	r23, r1
    105e:	07 2e       	mov	r0, r23
    1060:	00 0c       	add	r0, r0
    1062:	88 0b       	sbc	r24, r24
    1064:	99 0b       	sbc	r25, r25
    1066:	16 c0       	rjmp	.+44     	; 0x1094 <main+0x6d4>
					case '/':	u32Result_keypad=operant1/operant2;break;
    1068:	8c a5       	ldd	r24, Y+44	; 0x2c
    106a:	6b a5       	ldd	r22, Y+43	; 0x2b
    106c:	0e 94 18 09 	call	0x1230	; 0x1230 <__udivmodqi4>
    1070:	68 2f       	mov	r22, r24
    1072:	70 e0       	ldi	r23, 0x00	; 0
    1074:	80 e0       	ldi	r24, 0x00	; 0
    1076:	90 e0       	ldi	r25, 0x00	; 0
    1078:	0d c0       	rjmp	.+26     	; 0x1094 <main+0x6d4>
					case '*':	u32Result_keypad=operant1*operant2;break;
    107a:	8c a5       	ldd	r24, Y+44	; 0x2c
    107c:	6b a5       	ldd	r22, Y+43	; 0x2b
    107e:	86 9f       	mul	r24, r22
    1080:	b0 01       	movw	r22, r0
    1082:	11 24       	eor	r1, r1
    1084:	07 2e       	mov	r0, r23
    1086:	00 0c       	add	r0, r0
    1088:	88 0b       	sbc	r24, r24
    108a:	99 0b       	sbc	r25, r25
    108c:	03 c0       	rjmp	.+6      	; 0x1094 <main+0x6d4>
				
				LCD_udtClear();
				LCD_udtPrintStringAtXY ("Hi Enter Number1",0,0);
				volatile char number1[20] = {0,0,0,0,0,0,0,0,0,0,0,0,0,0,0,0,0,0,0,0};
				unit8 L_u8number=KEYPAD_NOT_PRESSED,L_u8j=0,operant1=1,operant2=1,operation=0;
				unit32 u32Result_keypad=0;
    108e:	60 e0       	ldi	r22, 0x00	; 0
    1090:	70 e0       	ldi	r23, 0x00	; 0
    1092:	cb 01       	movw	r24, r22
					case '/':	u32Result_keypad=operant1/operant2;break;
					case '*':	u32Result_keypad=operant1*operant2;break;
					default:break;
				}
						
				LCD_DisplayNumber(u32Result_keypad,LCD_DecimalBase);
    1094:	0e 94 b2 08 	call	0x1164	; 0x1164 <__floatunsisf>
    1098:	4a e0       	ldi	r20, 0x0A	; 10
    109a:	0e 94 b9 04 	call	0x972	; 0x972 <LCD_DisplayNumber>
    109e:	9f ef       	ldi	r25, 0xFF	; 255
    10a0:	a3 e2       	ldi	r26, 0x23	; 35
    10a2:	b4 ef       	ldi	r27, 0xF4	; 244
    10a4:	91 50       	subi	r25, 0x01	; 1
    10a6:	a0 40       	sbci	r26, 0x00	; 0
    10a8:	b0 40       	sbci	r27, 0x00	; 0
    10aa:	e1 f7       	brne	.-8      	; 0x10a4 <main+0x6e4>
    10ac:	00 c0       	rjmp	.+0      	; 0x10ae <main+0x6ee>
    10ae:	00 00       	nop
				_delay_ms(5000);
				LCD_udtClear();
    10b0:	0e 94 11 04 	call	0x822	; 0x822 <LCD_udtClear>
				LCD_udtAddSpecialChar(arrow, 0);
    10b4:	60 e0       	ldi	r22, 0x00	; 0
    10b6:	80 ed       	ldi	r24, 0xD0	; 208
    10b8:	90 e0       	ldi	r25, 0x00	; 0
    10ba:	0e 94 88 04 	call	0x910	; 0x910 <LCD_udtAddSpecialChar>
				LCD_udtAddSpecialChar(arrow, 0);
    10be:	60 e0       	ldi	r22, 0x00	; 0
    10c0:	80 ed       	ldi	r24, 0xD0	; 208
    10c2:	90 e0       	ldi	r25, 0x00	; 0
    10c4:	0e 94 88 04 	call	0x910	; 0x910 <LCD_udtAddSpecialChar>
				LCD_udtClear();
    10c8:	0e 94 11 04 	call	0x822	; 0x822 <LCD_udtClear>
				LCD_udtPrintSpecialChar(0,0,0);
    10cc:	40 e0       	ldi	r20, 0x00	; 0
    10ce:	60 e0       	ldi	r22, 0x00	; 0
    10d0:	80 e0       	ldi	r24, 0x00	; 0
    10d2:	0e 94 a9 04 	call	0x952	; 0x952 <LCD_udtPrintSpecialChar>
			else
			{
				
			}
		}
		DIO_udtGetPinValue(DIO_PORTD,DIO_PIN2,&PB2_Value);
    10d6:	ae 01       	movw	r20, r28
    10d8:	4e 5f       	subi	r20, 0xFE	; 254
    10da:	5f 4f       	sbci	r21, 0xFF	; 255
    10dc:	62 e0       	ldi	r22, 0x02	; 2
    10de:	83 e0       	ldi	r24, 0x03	; 3
    10e0:	0e 94 3d 01 	call	0x27a	; 0x27a <DIO_udtGetPinValue>
    10e4:	2f ef       	ldi	r18, 0xFF	; 255
    10e6:	84 e3       	ldi	r24, 0x34	; 52
    10e8:	9c e0       	ldi	r25, 0x0C	; 12
    10ea:	21 50       	subi	r18, 0x01	; 1
    10ec:	80 40       	sbci	r24, 0x00	; 0
    10ee:	90 40       	sbci	r25, 0x00	; 0
    10f0:	e1 f7       	brne	.-8      	; 0x10ea <main+0x72a>
    10f2:	00 c0       	rjmp	.+0      	; 0x10f4 <main+0x734>
    10f4:	00 00       	nop
    10f6:	93 cc       	rjmp	.-1754   	; 0xa1e <main+0x5e>

000010f8 <__fixsfsi>:
    10f8:	0e 94 83 08 	call	0x1106	; 0x1106 <__fixunssfsi>
    10fc:	68 94       	set
    10fe:	b1 11       	cpse	r27, r1
    1100:	0c 94 12 09 	jmp	0x1224	; 0x1224 <__fp_szero>
    1104:	08 95       	ret

00001106 <__fixunssfsi>:
    1106:	0e 94 f7 08 	call	0x11ee	; 0x11ee <__fp_splitA>
    110a:	88 f0       	brcs	.+34     	; 0x112e <__fixunssfsi+0x28>
    110c:	9f 57       	subi	r25, 0x7F	; 127
    110e:	98 f0       	brcs	.+38     	; 0x1136 <__fixunssfsi+0x30>
    1110:	b9 2f       	mov	r27, r25
    1112:	99 27       	eor	r25, r25
    1114:	b7 51       	subi	r27, 0x17	; 23
    1116:	b0 f0       	brcs	.+44     	; 0x1144 <__fixunssfsi+0x3e>
    1118:	e1 f0       	breq	.+56     	; 0x1152 <__fixunssfsi+0x4c>
    111a:	66 0f       	add	r22, r22
    111c:	77 1f       	adc	r23, r23
    111e:	88 1f       	adc	r24, r24
    1120:	99 1f       	adc	r25, r25
    1122:	1a f0       	brmi	.+6      	; 0x112a <__fixunssfsi+0x24>
    1124:	ba 95       	dec	r27
    1126:	c9 f7       	brne	.-14     	; 0x111a <__fixunssfsi+0x14>
    1128:	14 c0       	rjmp	.+40     	; 0x1152 <__fixunssfsi+0x4c>
    112a:	b1 30       	cpi	r27, 0x01	; 1
    112c:	91 f0       	breq	.+36     	; 0x1152 <__fixunssfsi+0x4c>
    112e:	0e 94 11 09 	call	0x1222	; 0x1222 <__fp_zero>
    1132:	b1 e0       	ldi	r27, 0x01	; 1
    1134:	08 95       	ret
    1136:	0c 94 11 09 	jmp	0x1222	; 0x1222 <__fp_zero>
    113a:	67 2f       	mov	r22, r23
    113c:	78 2f       	mov	r23, r24
    113e:	88 27       	eor	r24, r24
    1140:	b8 5f       	subi	r27, 0xF8	; 248
    1142:	39 f0       	breq	.+14     	; 0x1152 <__fixunssfsi+0x4c>
    1144:	b9 3f       	cpi	r27, 0xF9	; 249
    1146:	cc f3       	brlt	.-14     	; 0x113a <__fixunssfsi+0x34>
    1148:	86 95       	lsr	r24
    114a:	77 95       	ror	r23
    114c:	67 95       	ror	r22
    114e:	b3 95       	inc	r27
    1150:	d9 f7       	brne	.-10     	; 0x1148 <__fixunssfsi+0x42>
    1152:	3e f4       	brtc	.+14     	; 0x1162 <__fixunssfsi+0x5c>
    1154:	90 95       	com	r25
    1156:	80 95       	com	r24
    1158:	70 95       	com	r23
    115a:	61 95       	neg	r22
    115c:	7f 4f       	sbci	r23, 0xFF	; 255
    115e:	8f 4f       	sbci	r24, 0xFF	; 255
    1160:	9f 4f       	sbci	r25, 0xFF	; 255
    1162:	08 95       	ret

00001164 <__floatunsisf>:
    1164:	e8 94       	clt
    1166:	09 c0       	rjmp	.+18     	; 0x117a <__floatsisf+0x12>

00001168 <__floatsisf>:
    1168:	97 fb       	bst	r25, 7
    116a:	3e f4       	brtc	.+14     	; 0x117a <__floatsisf+0x12>
    116c:	90 95       	com	r25
    116e:	80 95       	com	r24
    1170:	70 95       	com	r23
    1172:	61 95       	neg	r22
    1174:	7f 4f       	sbci	r23, 0xFF	; 255
    1176:	8f 4f       	sbci	r24, 0xFF	; 255
    1178:	9f 4f       	sbci	r25, 0xFF	; 255
    117a:	99 23       	and	r25, r25
    117c:	a9 f0       	breq	.+42     	; 0x11a8 <__floatsisf+0x40>
    117e:	f9 2f       	mov	r31, r25
    1180:	96 e9       	ldi	r25, 0x96	; 150
    1182:	bb 27       	eor	r27, r27
    1184:	93 95       	inc	r25
    1186:	f6 95       	lsr	r31
    1188:	87 95       	ror	r24
    118a:	77 95       	ror	r23
    118c:	67 95       	ror	r22
    118e:	b7 95       	ror	r27
    1190:	f1 11       	cpse	r31, r1
    1192:	f8 cf       	rjmp	.-16     	; 0x1184 <__floatsisf+0x1c>
    1194:	fa f4       	brpl	.+62     	; 0x11d4 <__floatsisf+0x6c>
    1196:	bb 0f       	add	r27, r27
    1198:	11 f4       	brne	.+4      	; 0x119e <__floatsisf+0x36>
    119a:	60 ff       	sbrs	r22, 0
    119c:	1b c0       	rjmp	.+54     	; 0x11d4 <__floatsisf+0x6c>
    119e:	6f 5f       	subi	r22, 0xFF	; 255
    11a0:	7f 4f       	sbci	r23, 0xFF	; 255
    11a2:	8f 4f       	sbci	r24, 0xFF	; 255
    11a4:	9f 4f       	sbci	r25, 0xFF	; 255
    11a6:	16 c0       	rjmp	.+44     	; 0x11d4 <__floatsisf+0x6c>
    11a8:	88 23       	and	r24, r24
    11aa:	11 f0       	breq	.+4      	; 0x11b0 <__floatsisf+0x48>
    11ac:	96 e9       	ldi	r25, 0x96	; 150
    11ae:	11 c0       	rjmp	.+34     	; 0x11d2 <__floatsisf+0x6a>
    11b0:	77 23       	and	r23, r23
    11b2:	21 f0       	breq	.+8      	; 0x11bc <__floatsisf+0x54>
    11b4:	9e e8       	ldi	r25, 0x8E	; 142
    11b6:	87 2f       	mov	r24, r23
    11b8:	76 2f       	mov	r23, r22
    11ba:	05 c0       	rjmp	.+10     	; 0x11c6 <__floatsisf+0x5e>
    11bc:	66 23       	and	r22, r22
    11be:	71 f0       	breq	.+28     	; 0x11dc <__floatsisf+0x74>
    11c0:	96 e8       	ldi	r25, 0x86	; 134
    11c2:	86 2f       	mov	r24, r22
    11c4:	70 e0       	ldi	r23, 0x00	; 0
    11c6:	60 e0       	ldi	r22, 0x00	; 0
    11c8:	2a f0       	brmi	.+10     	; 0x11d4 <__floatsisf+0x6c>
    11ca:	9a 95       	dec	r25
    11cc:	66 0f       	add	r22, r22
    11ce:	77 1f       	adc	r23, r23
    11d0:	88 1f       	adc	r24, r24
    11d2:	da f7       	brpl	.-10     	; 0x11ca <__floatsisf+0x62>
    11d4:	88 0f       	add	r24, r24
    11d6:	96 95       	lsr	r25
    11d8:	87 95       	ror	r24
    11da:	97 f9       	bld	r25, 7
    11dc:	08 95       	ret

000011de <__fp_split3>:
    11de:	57 fd       	sbrc	r21, 7
    11e0:	90 58       	subi	r25, 0x80	; 128
    11e2:	44 0f       	add	r20, r20
    11e4:	55 1f       	adc	r21, r21
    11e6:	59 f0       	breq	.+22     	; 0x11fe <__fp_splitA+0x10>
    11e8:	5f 3f       	cpi	r21, 0xFF	; 255
    11ea:	71 f0       	breq	.+28     	; 0x1208 <__fp_splitA+0x1a>
    11ec:	47 95       	ror	r20

000011ee <__fp_splitA>:
    11ee:	88 0f       	add	r24, r24
    11f0:	97 fb       	bst	r25, 7
    11f2:	99 1f       	adc	r25, r25
    11f4:	61 f0       	breq	.+24     	; 0x120e <__fp_splitA+0x20>
    11f6:	9f 3f       	cpi	r25, 0xFF	; 255
    11f8:	79 f0       	breq	.+30     	; 0x1218 <__fp_splitA+0x2a>
    11fa:	87 95       	ror	r24
    11fc:	08 95       	ret
    11fe:	12 16       	cp	r1, r18
    1200:	13 06       	cpc	r1, r19
    1202:	14 06       	cpc	r1, r20
    1204:	55 1f       	adc	r21, r21
    1206:	f2 cf       	rjmp	.-28     	; 0x11ec <__fp_split3+0xe>
    1208:	46 95       	lsr	r20
    120a:	f1 df       	rcall	.-30     	; 0x11ee <__fp_splitA>
    120c:	08 c0       	rjmp	.+16     	; 0x121e <__fp_splitA+0x30>
    120e:	16 16       	cp	r1, r22
    1210:	17 06       	cpc	r1, r23
    1212:	18 06       	cpc	r1, r24
    1214:	99 1f       	adc	r25, r25
    1216:	f1 cf       	rjmp	.-30     	; 0x11fa <__fp_splitA+0xc>
    1218:	86 95       	lsr	r24
    121a:	71 05       	cpc	r23, r1
    121c:	61 05       	cpc	r22, r1
    121e:	08 94       	sec
    1220:	08 95       	ret

00001222 <__fp_zero>:
    1222:	e8 94       	clt

00001224 <__fp_szero>:
    1224:	bb 27       	eor	r27, r27
    1226:	66 27       	eor	r22, r22
    1228:	77 27       	eor	r23, r23
    122a:	cb 01       	movw	r24, r22
    122c:	97 f9       	bld	r25, 7
    122e:	08 95       	ret

00001230 <__udivmodqi4>:
    1230:	99 1b       	sub	r25, r25
    1232:	79 e0       	ldi	r23, 0x09	; 9
    1234:	04 c0       	rjmp	.+8      	; 0x123e <__udivmodqi4_ep>

00001236 <__udivmodqi4_loop>:
    1236:	99 1f       	adc	r25, r25
    1238:	96 17       	cp	r25, r22
    123a:	08 f0       	brcs	.+2      	; 0x123e <__udivmodqi4_ep>
    123c:	96 1b       	sub	r25, r22

0000123e <__udivmodqi4_ep>:
    123e:	88 1f       	adc	r24, r24
    1240:	7a 95       	dec	r23
    1242:	c9 f7       	brne	.-14     	; 0x1236 <__udivmodqi4_loop>
    1244:	80 95       	com	r24
    1246:	08 95       	ret

00001248 <itoa>:
    1248:	45 32       	cpi	r20, 0x25	; 37
    124a:	51 05       	cpc	r21, r1
    124c:	20 f4       	brcc	.+8      	; 0x1256 <itoa+0xe>
    124e:	42 30       	cpi	r20, 0x02	; 2
    1250:	10 f0       	brcs	.+4      	; 0x1256 <itoa+0xe>
    1252:	0c 94 2f 09 	jmp	0x125e	; 0x125e <__itoa_ncheck>
    1256:	fb 01       	movw	r30, r22
    1258:	10 82       	st	Z, r1
    125a:	cb 01       	movw	r24, r22
    125c:	08 95       	ret

0000125e <__itoa_ncheck>:
    125e:	bb 27       	eor	r27, r27
    1260:	4a 30       	cpi	r20, 0x0A	; 10
    1262:	31 f4       	brne	.+12     	; 0x1270 <__itoa_ncheck+0x12>
    1264:	99 23       	and	r25, r25
    1266:	22 f4       	brpl	.+8      	; 0x1270 <__itoa_ncheck+0x12>
    1268:	bd e2       	ldi	r27, 0x2D	; 45
    126a:	90 95       	com	r25
    126c:	81 95       	neg	r24
    126e:	9f 4f       	sbci	r25, 0xFF	; 255
    1270:	0c 94 3b 09 	jmp	0x1276	; 0x1276 <__utoa_common>

00001274 <__utoa_ncheck>:
    1274:	bb 27       	eor	r27, r27

00001276 <__utoa_common>:
    1276:	fb 01       	movw	r30, r22
    1278:	55 27       	eor	r21, r21
    127a:	aa 27       	eor	r26, r26
    127c:	88 0f       	add	r24, r24
    127e:	99 1f       	adc	r25, r25
    1280:	aa 1f       	adc	r26, r26
    1282:	a4 17       	cp	r26, r20
    1284:	10 f0       	brcs	.+4      	; 0x128a <__utoa_common+0x14>
    1286:	a4 1b       	sub	r26, r20
    1288:	83 95       	inc	r24
    128a:	50 51       	subi	r21, 0x10	; 16
    128c:	b9 f7       	brne	.-18     	; 0x127c <__utoa_common+0x6>
    128e:	a0 5d       	subi	r26, 0xD0	; 208
    1290:	aa 33       	cpi	r26, 0x3A	; 58
    1292:	08 f0       	brcs	.+2      	; 0x1296 <__utoa_common+0x20>
    1294:	a9 5d       	subi	r26, 0xD9	; 217
    1296:	a1 93       	st	Z+, r26
    1298:	00 97       	sbiw	r24, 0x00	; 0
    129a:	79 f7       	brne	.-34     	; 0x127a <__utoa_common+0x4>
    129c:	b1 11       	cpse	r27, r1
    129e:	b1 93       	st	Z+, r27
    12a0:	11 92       	st	Z+, r1
    12a2:	cb 01       	movw	r24, r22
    12a4:	0c 94 54 09 	jmp	0x12a8	; 0x12a8 <strrev>

000012a8 <strrev>:
    12a8:	dc 01       	movw	r26, r24
    12aa:	fc 01       	movw	r30, r24
    12ac:	67 2f       	mov	r22, r23
    12ae:	71 91       	ld	r23, Z+
    12b0:	77 23       	and	r23, r23
    12b2:	e1 f7       	brne	.-8      	; 0x12ac <strrev+0x4>
    12b4:	32 97       	sbiw	r30, 0x02	; 2
    12b6:	04 c0       	rjmp	.+8      	; 0x12c0 <strrev+0x18>
    12b8:	7c 91       	ld	r23, X
    12ba:	6d 93       	st	X+, r22
    12bc:	70 83       	st	Z, r23
    12be:	62 91       	ld	r22, -Z
    12c0:	ae 17       	cp	r26, r30
    12c2:	bf 07       	cpc	r27, r31
    12c4:	c8 f3       	brcs	.-14     	; 0x12b8 <strrev+0x10>
    12c6:	08 95       	ret

000012c8 <_exit>:
    12c8:	f8 94       	cli

000012ca <__stop_program>:
    12ca:	ff cf       	rjmp	.-2      	; 0x12ca <__stop_program>
